 xboxkrnl

 Timestamp is 3f686077 (Wed Sep 17 15:24:07 2003)

 Preferred load address is 80010000

 Start         Length     Name                   Class
 0001:00000000 0000061dH .edata                  CODE
 0001:00000620 00003a28H .rdata                  CODE
 0001:00004048 00000050H .rdata$debug            CODE
 0001:000040a0 0001eb58H .text                   CODE
 0001:00022c00 000037e0H PAGER32C                CODE
 0001:000263e0 00001020H PAGER32R                CODE
 0002:00000000 000035ccH KDCODE                  CODE
 0002:000035cc 00000063H KDDATA_RD               CODE
 0003:00000000 00000a90H .data                   DATA
 0003:00000a90 00000275H KDDATA_RW               DATA
 0003:00000d20 00004c40H .bss                    DATA
 0003:00005960 0000c299H KDDATA_URW              DATA
 0004:00000000 00000470H STICKY                  DATA
 0005:00000000 00000108H IDEXPRDT                DATA
 0006:00000000 00000020H .XBLD$V                 CODE
 0006:00000020 0000cd0cH D3D                     CODE
 0006:0000cd30 000011c0H D3D_RD                  CODE
 0006:0000def0 00000070H D3D_RW                  CODE
 0006:0000df60 00003254H D3D_URW                 CODE
 0006:000111b4 00005709H DSOUND                  CODE
 0006:000168c0 000000e2H DSOUND_RD               CODE
 0006:000169a8 00001938H DSOUND_RW               CODE
 0006:000182e0 000000a4H DSOUND_URW              CODE
 0006:00018390 0000ecd5H INIT                    CODE
 0006:00027070 0000b320H INIT_RD                 CODE
 0006:00032390 00038c28H INIT_RW                 CODE
 0006:0006afb8 000011a4H XGRPH                   CODE
 0006:0006c160 00000042H XGRPH_RD                CODE

  Address         Publics by Value              Rva+Base     Lib:Object

 0000:00000000       __except_list              00000000     <absolute>
 0000:00000038       _KiGDTLEN                  00000038     <absolute>
 0000:00000200       _KiIDTLEN                  00000200     <absolute>
 0001:0000063c       _ExEventObjectType         8001093c     ex:event.obj
 0001:00000658       _ExMutantObjectType        80010958     ex:mutant.obj
 0001:00000688       _FactorySettingsInfo       80010988     ex:settings.obj
 0001:000006a0       _UserSettingsInfo          800109a0     ex:settings.obj
 0001:000006f0       ??_C@_0BN@OGMPKPAN@?2Device?2Harddisk0?2partition0?$AA@ 800109f0     ex:settings.obj
 0001:00000710       _ExSemaphoreObjectType     80010a10     ex:semphore.obj
 0001:0000073c       _ExTimerObjectType         80010a3c     ex:timer.obj
 0001:00000758       _HalpPCISpaceReaders       80010a58     halx:pcispace.obj
 0001:00000764       _HalpPCISpaceWriters       80010a64     halx:pcispace.obj
 0001:00000770       _HalpPCISpaceAccessMatrix  80010a70     halx:pcispace.obj
 0001:00000780       ??_C@_07MAKLLIO@?1DBBOOT?$AA@ 80010a80     init:xboxkrnl.obj
 0001:00000788       ??_C@_07BPPEGGBN@?1CDBOOT?$AA@ 80010a88     init:xboxkrnl.obj
 0001:00000790       ??_C@_07BNPDDCOH@?1HDBOOT?$AA@ 80010a90     init:xboxkrnl.obj
 0001:00000798       ??_C@_06GMHMOEFH@SHADOW?$AA@ 80010a98     init:xboxkrnl.obj
 0001:000007a0       _ExpDVDXbdmDLLBuffer       80010aa0     init:init.obj
 0001:000007b8       _ExpDVDXbdmDLL             80010ab8     init:init.obj
 0001:000007c0       _ExpHDXbdmDLLBuffer        80010ac0     init:init.obj
 0001:000007e8       _ExpHDXbdmDLL              80010ae8     init:init.obj
 0001:000007f0       _ExpCdRomBootROMStringBuffer 80010af0     init:init.obj
 0001:0000080c       _ExpCdRomBootROMString     80010b0c     init:init.obj
 0001:00000814       _ExpHardDiskBootROMStringBuffer 80010b14     init:init.obj
 0001:00000840       _ExpHardDiskBootROMString  80010b40     init:init.obj
 0001:00000848       _XboxKrnlVersion           80010b48     init:init.obj
 0001:00000850       ??_C@_0CG@JNONFOAK@INIT?3?5Failed?5to?5read?5ROM?5from?5me@ 80010b50     init:init.obj
 0001:00000878       ??_C@_08NNAPCOK@?5?1DBBOOT?$AA@ 80010b78     init:init.obj
 0001:00000884       ??_C@_0CL@CNDJBANC@INIT?3?5Loaded?5kernel?5image?5from?5h@ 80010b84     init:init.obj
 0001:000008b0       ??_C@_0BB@CELLGDBI@?5?1SHADOW?5?1HDBOOT?$AA@ 80010bb0     init:init.obj
 0001:000008c4       ??_C@_0CI@DKMHFBMA@INIT?3?5Loaded?5kernel?5image?5from?5C@ 80010bc4     init:init.obj
 0001:000008ec       ??_C@_0BB@CGLMDHOC@?5?1SHADOW?5?1CDBOOT?$AA@ 80010bec     init:init.obj
 0001:00000900       ??_C@_0DM@LHHMEIO@INIT?3?5Failed?5to?5load?5ROM?5from?5me@ 80010c00     init:init.obj
 0001:0000093c       ??_C@_0CN@OMGKJDNM@INIT?3?5Failed?5to?5allocate?5shadow?5@ 80010c3c     init:init.obj
 0001:0000096c       ??_C@_0CO@MLIGBLFG@INIT?3?5Failed?5to?5allocate?5boot?5lo@ 80010c6c     init:init.obj
 0001:0000099c       ??_C@_0BO@KLIPEJFL@Failed?5to?5load?5any?5xbdm?4dll?$CB?6?$AA@ 80010c9c     init:init.obj
 0001:000009bc       ??_C@_04PONNOKHC@xbdm?$AA@ 80010cbc     init:init.obj
 0001:000009d4       __real@3f000000            80010cd4     init:fatal.obj
 0001:000009d8       __real@3d888889            80010cd8     init:fatal.obj
 0001:000009dc       __real@4f800000            80010cdc     init:fatal.obj
 0001:000009e0       __real@40000000            80010ce0     init:fatal.obj
 0001:000009e4       _IoCompletionObjectType    80010ce4     io:iodata.obj
 0001:00000a00       _IoDeviceObjectType        80010d00     io:iodata.obj
 0001:00000a1c       _IoFileObjectType          80010d1c     io:iodata.obj
 0001:00000a38       _IopFileMapping            80010d38     io:iodata.obj
 0001:00000a48       _IopQueryOperationLength   80010d48     io:iodata.obj
 0001:00000a70       _IopSetOperationLength     80010d70     io:iodata.obj
 0001:00000a98       _IopQueryOperationAccess   80010d98     io:iodata.obj
 0001:00000b30       _IopSetOperationAccess     80010e30     io:iodata.obj
 0001:00000bc8       _IopQueryFsOperationLength 80010ec8     io:iodata.obj
 0001:00000bd4       _IopQueryFsOperationAccess 80010ed4     io:iodata.obj
 0001:00000c38       ??_C@_0FA@NGBMEEAN@?6?$CK?$CK?$CK?5Fatal?5System?5Error?3?50x?$CF08lx@ 80010f38     ke:bugcheck.obj
 0001:00000c88       _KeTimeIncrement           80010f88     ke:kernldat.obj
 0001:00000c8c       _KiFindLeftNibbleBitTable  80010f8c     ke:kernldat.obj
 0001:00000ca0       _KiTimeIncrementReciprocal 80010fa0     ke:kernldat.obj
 0001:00000ca8       _KiTimeIncrementShiftCount 80010fa8     ke:kernldat.obj
 0001:00000ccc       _MmProtectToPteProtectionMask 80010fcc     mmcon:mmsup.obj
 0001:00000cdc       _MmGlobalData              80010fdc     mmcon:mminit.obj
 0001:00000d0c       _ObDirectoryObjectType     8001100c     ob:obdir.obj
 0001:00000d28       _ObSymbolicLinkObjectType  80011028     ob:oblink.obj
 0001:00000d8c       _ObpDosDevicesStringBuffer 8001108c     ob:obmanage.obj
 0001:00000d90       _ObpDosDevicesString       80011090     ob:obmanage.obj
 0001:00000d98       _ObpIoDevicesStringBuffer  80011098     ob:obmanage.obj
 0001:00000da0       _ObpIoDevicesString        800110a0     ob:obmanage.obj
 0001:00000da8       _ObpWin32NamedObjectsStringBuffer 800110a8     ob:obmanage.obj
 0001:00000dbc       _ObpWin32NamedObjectsString 800110bc     ob:obmanage.obj
 0001:00000de4       _PsThreadObjectType        800110e4     ps:psinit.obj
 0001:00000e00       ??_C@_0CD@CPBMMNLE@Execute?5?8?$CBcxr?5?$CFp?8?5to?5dump?5contex@ 80011100     ntosrtl:assert.obj
 0001:00000e24       ??_C@_0DO@CDJIIIPD@?6?$CK?$CK?$CK?5Assertion?5failed?3?5?$CFs?$CFs?6?$CK?$CK?$CK?5@ 80011124     ntosrtl:assert.obj
 0001:00000e62       ??_C@_00CNPNBAHC@?$AA@     80011162     ntosrtl:assert.obj
 0001:00000e64       ??_C@_0P@MBLIGIDD@?$CFs?$CFc?5?$CFc?$CFs?$CFc?5?$CFs?$AA@ 80011164     ntosrtl:assert.obj
 0001:00000e74       ??_C@_0BD@MCACFPA@unexpected?5failure?$AA@ 80011174     ntosrtl:assert.obj
 0001:00000e88       ??_C@_06ODACHPEO@failed?$AA@ 80011188     ntosrtl:assert.obj
 0001:00000e9c       _RtlpIntegerChars          8001119c     ntosrtl:cnvint.obj
 0001:00000eac       _RtlpIntegerWChars         800111ac     ntosrtl:cnvint.obj
 0001:00000f00       _Nls844UnicodeCaseTableLevel1 80011200     ntosrtl:nlsxlat.obj
 0001:00001000       _Nls844UnicodeUpcaseTableLevel2 80011300     ntosrtl:nlsxlat.obj
 0001:000010d0       _Nls844UnicodeLowercaseTableLevel2 800113d0     ntosrtl:nlsxlat.obj
 0001:000011a0       _Nls844UnicodeCaseTableLevel3 800114a0     ntosrtl:nlsxlat.obj
 0001:00001960       _RtlpStatusTable           80011c60     ntosrtl:error.obj
 0001:00001f60       _RtlpRunTable              80012260     ntosrtl:error.obj
 0001:00002298       _LeapYearDaysPrecedingMonth 80012598     ntosrtl:time.obj
 0001:000022b4       _NormalYearDaysPrecedingMonth 800125b4     ntosrtl:time.obj
 0001:000022d0       _Magic10000                800125d0     ntosrtl:time.obj
 0001:000022d8       _Magic10000000             800125d8     ntosrtl:time.obj
 0001:000022e0       _Magic86400000             800125e0     ntosrtl:time.obj
 0001:000022e8       _IdexDiskDirectoryNameBuffer 800125e8     idexcon:disk.obj
 0001:000022fc       _IdexDiskDirectoryName     800125fc     idexcon:disk.obj
 0001:00002304       _IdexDiskPartitionPrefixBuffer 80012604     idexcon:disk.obj
 0001:00002310       _IdexDiskPartitionPrefix   80012610     idexcon:disk.obj
 0001:00002318       _HalDiskCachePartitionCount 80012618     idexcon:disk.obj
 0001:00002320       _IdexDiskDriverObject      80012620     idexcon:disk.obj
 0001:00002364       _IdexDiskDirectoryObjectType 80012664     idexcon:disk.obj
 0001:00002380       _IdexCdRomDeviceNameBuffer 80012680     idexcon:cdrom.obj
 0001:00002390       _IdexCdRomDeviceName       80012690     idexcon:cdrom.obj
 0001:00002398       _IdexCdRomDosDevicesNameBuffer 80012698     idexcon:cdrom.obj
 0001:000023a4       _IdexCdRomDosDevicesName   800126a4     idexcon:cdrom.obj
 0001:000023b0       _IdexCdRomDriverObject     800126b0     idexcon:cdrom.obj
 0001:000023f4       _IdexCdRomSpindleSpeedupTable 800126f4     idexcon:cdrom.obj
 0001:00002400       _RawxDriverObject          80012700     raw:driver.obj
 0001:00002448       _FatxDriverObject          80012748     fatx:driver.obj
 0001:0000248c       _FatxFatIllegalTable       8001278c     fatx:fatsup.obj
 0001:000024ac       _GdfxVolumeDescriptorSignature 800127ac     gdfx:mountvol.obj
 0001:000024c8       _GdfxDriverObject          800127c8     gdfx:driver.obj
 0001:00002510       _UdfxVsdIdentLookupTable   80012810     udfx:mountvol.obj
 0001:00002548       _UdfxNSR02Regid            80012848     udfx:mountvol.obj
 0001:00002560       _UdfxOSTAUdfRegid          80012860     udfx:mountvol.obj
 0001:00002578       _UdfxCS0Identifier         80012878     udfx:mountvol.obj
 0001:000025b8       _UdfxDriverObject          800128b8     udfx:driver.obj
 0001:00002600       ___lookuptable             80012900     libcntpr:output.obj
 0001:0000265c       ___nullstring              8001295c     libcntpr:output.obj
 0001:00002664       ___wnullstring             80012964     libcntpr:output.obj
 0001:00002678       _XePublicKeyData           80012978     ldrcon:loader.obj
 0001:00002794       _XepCdRomDosDeviceBuffer   80012a94     ldrcon:loader.obj
 0001:0000279c       _XepCdRomDosDevice         80012a9c     ldrcon:loader.obj
 0001:000027a4       _XepDashboardRedirectionPathBuffer 80012aa4     ldrcon:loader.obj
 0001:000027d0       _XepDashboardRedirectionPath 80012ad0     ldrcon:loader.obj
 0001:000027d8       _XepDefaultImagePath       80012ad8     ldrcon:loader.obj
 0001:000027f4       _XepDashboardImagePath1    80012af4     ldrcon:loader.obj
 0001:00002820       _XepDashboardImagePath2    80012b20     ldrcon:loader.obj
 0001:0000284c       _XepDashboardImagePath3    80012b4c     ldrcon:loader.obj
 0001:00002878       ??_C@_0DO@JMGMPGO@This?5XBE?5was?5linked?5with?5?$CF8?48s?4L@ 80012b78     ldrcon:loader.obj
 0001:000028b8       ??_C@_08OPCEOJFP@?5?$CIDebug?$CJ?$AA@ 80012bb8     ldrcon:loader.obj
 0001:000028c4       ??_C@_0BH@GLNPJGJE@Xbox?5image?5loaded?3?5?$CFZ?6?$AA@ 80012bc4     ldrcon:loader.obj
 0001:000028e0       _originalCryptoVector      80012be0     xcryptk:xcbase.obj
 0001:00002920       ??_C@_01A@?$AA?$AA@        80012c20     xcryptk:xcbase.obj
 0001:00002924       ??_C@_0P@EMGP@?$AN?$BE?$AE?$BK?$AC?$AD?$AO?$CL?$AF?$AG?$AH0?$BP0?$AA@ 80012c24     xcryptk:xcbase.obj
 0001:00002934       ??_C@_0BB@JDMG@?$AP?$BE?$AE?$AA?$AF?$BK?$AC?$AD?$AO?$CL?$AF?$AG?70?$CB0?$AA@ 80012c34     xcryptk:xcbase.obj
 0001:00002948       __real@40c90fdb            80012c48     ani:xbs_app.obj
 0001:0000294c       __real@bdcccccd            80012c4c     ani:xbs_app.obj
 0001:00002950       __real@3dcccccd            80012c50     ani:xbs_app.obj
 0001:00002954       __real@3fc90fdb            80012c54     ani:xbs_app.obj
 0001:00002958       __real@3f800000            80012c58     ani:xbs_app.obj
 0001:0000295c       __real@bfc90fdb            80012c5c     ani:xbs_app.obj
 0001:00002960       __real@bf800000            80012c60     ani:xbs_app.obj
 0001:00002964       __real@3f400000            80012c64     ani:xbs_app.obj
 0001:00002968       __real@3e800000            80012c68     ani:xbs_app.obj
 0001:0000296c       __real@3a83126f            80012c6c     ani:xbs_app.obj
 0001:00002970       __real@3e051eb8            80012c70     ani:xbs_app.obj
 0001:00002974       __real@40400000            80012c74     ani:xbs_app.obj
 0001:00002978       __real@40a00000            80012c78     ani:xbs_app.obj
 0001:0000297c       __real@3e4ccccd            80012c7c     ani:xbs_app.obj
 0001:00002980       __real@3d4ccccd            80012c80     ani:xbs_app.obj
 0001:00002984       __real@3f99999a            80012c84     ani:xbs_app.obj
 0001:00002988       __real@3d9d89d9            80012c88     ani:xbs_app.obj
 0001:0000298c       __real@3cf5c28f            80012c8c     ani:xbs_app.obj
 0001:00002990       __real@447a0000            80012c90     ani:xbs_app.obj
 0001:00002994       __real@3e910cb3            80012c94     ani:xbs_app.obj
 0001:00002998       __real@3e2aaaab            80012c98     ani:xbs_app.obj
 0001:0000299c       __real@41200000            80012c9c     ani:xbs_app.obj
 0001:000029a0       __real@3e79c190            80012ca0     ani:xbs_app.obj
 0001:000029a4       __real@3f8ccccd            80012ca4     ani:xbs_app.obj
 0001:000029a8       __real@3f490fdb            80012ca8     ani:xbs_app.obj
 0001:000029ac       __real@3ecccccd            80012cac     ani:xbs_app.obj
 0001:000029b0       __real@44480000            80012cb0     ani:xbs_app.obj
 0001:000029b4       __real@3f100000            80012cb4     ani:xbs_app.obj
 0001:000029b8       __real@3b000000            80012cb8     ani:xbs_app.obj
 0001:000029bc       __real@00000000            80012cbc     ani:fastmath.obj
 0001:000029c0       __real@40490fdb            80012cc0     ani:fastmath.obj
 0001:000029c4       __real@3f858dc1            80012cc4     ani:vblob.obj
 0001:000029c8       __real@3eb00000            80012cc8     ani:vblob.obj
 0001:000029cc       __real@358637bd            80012ccc     ani:vblob.obj
 0001:000029d0       __real@40800000            80012cd0     ani:vblob.obj
 0001:000029d4       __real@3f4ccccd            80012cd4     ani:vblob.obj
 0001:000029d8       __real@40a66666            80012cd8     ani:vblob.obj
 0001:000029dc       __real@437f0000            80012cdc     ani:vblob.obj
 0001:000029e0       __real@3fa66666            80012ce0     ani:vblob.obj
 0001:000029e4       __real@c0800000            80012ce4     ani:vblob.obj
 0001:000029e8       __real@3f13cd36            80012ce8     ani:vblob.obj
 0001:000029ec       __real@bf13cd36            80012cec     ani:vblob.obj
 0001:000029f0       __real@3fb33333            80012cf0     ani:vblob.obj
 0001:000029f4       __real@3f866666            80012cf4     ani:vblob.obj
 0001:000029f8       __real@3f733333            80012cf8     ani:vblob.obj
 0001:000029fc       __real@c0490fdb            80012cfc     ani:vblob.obj
 0001:00002a00       __real@3fd55555            80012d00     ani:vblob.obj
 0001:00002a04       __real@be99999a            80012d04     ani:vblob.obj
 0001:00002a08       __real@3f666666            80012d08     ani:vblob.obj
 0001:00002a0c       __real@3ea8f5c3            80012d0c     ani:greenfog.obj
 0001:00002a10       __real@41055555            80012d10     ani:greenfog.obj
 0001:00002a14       __real@3df5c290            80012d14     ani:greenfog.obj
 0001:00002a18       __real@40555555            80012d18     ani:greenfog.obj
 0001:00002a1c       __real@40966666            80012d1c     ani:greenfog.obj
 0001:00002a20       __real@3eaaaaab            80012d20     ani:greenfog.obj
 0001:00002a24       __real@40200000            80012d24     ani:greenfog.obj
 0001:00002a28       __real@3ff00000            80012d28     ani:greenfog.obj
 0001:00002a2c       __real@3b23d70a            80012d2c     ani:greenfog.obj
 0001:00002a30       __real@3f200000            80012d30     ani:greenfog.obj
 0001:00002a34       __real@3f333333            80012d34     ani:greenfog.obj
 0001:00002a38       __real@3c4ccccd            80012d38     ani:greenfog.obj
 0001:00002a3c       __real@bff00000            80012d3c     ani:greenfog.obj
 0001:00002a40       __real@c0200000            80012d40     ani:greenfog.obj
 0001:00002a44       __real@430423d7            80012d44     ani:camcontrol.obj
 0001:00002a48       __real@c30423d7            80012d48     ani:camcontrol.obj
 0001:00002a4c       __real@42be0000            80012d4c     ani:camcontrol.obj
 0001:00002a50       __real@43430000            80012d50     ani:camcontrol.obj
 0001:00002a54       __real@c2be0000            80012d54     ani:camcontrol.obj
 0001:00002a58       __real@3dea0ea1            80012d58     ani:camcontrol.obj
 0001:00002a5c       __real@40c00000            80012d5c     ani:camcontrol.obj
 0001:00002a60       __real@3d54fdf3            80012d60     ani:camcontrol.obj
 0001:00002a64       __real@3c23d70a            80012d64     ani:camcontrol.obj
 0001:00002a68       __real@3c21cef2            80012d68     ani:logo_renderer.obj
 0001:00002a6c       __real@4321b722            80012d6c     ani:logo_renderer.obj
 0001:00002a70       __real@38734507            80012d70     ani:logo_renderer.obj
 0001:00002a74       __real@3f7299e9            80012d74     ani:logo_renderer.obj
 0001:00002a78       __real@3f0786c2            80012d78     ani:logo_renderer.obj
 0001:00002a7c       __real@3f1793de            80012d7c     ani:logo_renderer.obj
 0001:00002a80       __real@3f50d068            80012d80     ani:logo_renderer.obj
 0001:00002a84       __real@3fc4ec4f            80012d84     ani:logo_renderer.obj
 0001:00002a88       __real@40c80000            80012d88     ani:logo_renderer.obj
 0001:00002a8c       __real@3727c5ac            80012d8c     ani:scene_renderer.obj
 0001:00002a90       __real@3e22f983            80012d90     ani:scene_renderer.obj
 0001:00002a94       __real@3ea2f983            80012d94     ani:scene_renderer.obj
 0001:00002a98       __real@42000000            80012d98     ani:scene_renderer.obj
 0001:00002a9c       __real@bf000000            80012d9c     ani:scene_renderer.obj
 0001:00002aa0       __real@3e6a37ef            80012da0     ani:scene_renderer.obj
 0001:00002aa4       __real@41dec287            80012da4     ani:scene_renderer.obj
 0001:00002aa8       __real@38001203            80012da8     ani:scene_renderer.obj
 0001:00002aac       __real@3f3dda38            80012dac     ani:scene_renderer.obj
 0001:00002ab0       __real@3e22dcf4            80012db0     ani:scene_renderer.obj
 0001:00002ab4       __real@3e54e3bd            80012db4     ani:scene_renderer.obj
 0001:00002ab8       __real@41e00000            80012db8     ani:scene_renderer.obj
 0001:00002abc       __real@3e638e39            80012dbc     ani:scene_renderer.obj
 0001:00002ac0       __real@3f59999a            80012dc0     ani:scene_renderer.obj
 0001:00002ac4       __real@43804000            80012dc4     ani:scene_renderer.obj
 0001:00002ac8       __real@40060a92            80012dc8     ani:scene_renderer.obj
 0001:00002acc       __real@43fa0000            80012dcc     ani:scene_renderer.obj
 0001:00002ad0       __real@42ff0000            80012dd0     ani:tex_gen.obj
 0001:00002ad4       __real@43800000            80012dd4     ani:tex_gen.obj
 0001:00002ad8       __real@3b800000            80012dd8     ani:tex_gen.obj
 0001:00002adc       __real@3b808081            80012ddc     ani:tex_gen.obj
 0001:00002ae0       __real@40ab3333            80012de0     ani:tex_gen.obj
 0001:00002ae4       __real@43c80000            80012de4     ani:tex_gen.obj
 0001:00002ae8       __real@40f0000000000000    80012de8     ani:dev.obj
 0001:00002af0       __real@3f80000000000000    80012df0     ani:dev.obj
 0001:00002af8       __real@3fc921f9f01b866e    80012df8     ani:dev.obj
 0001:00002b00       __real@3f10000000000000    80012e00     ani:dev.obj
 0001:00002b08       __real@3fb921f9f01b866e    80012e08     ani:dev.obj
 0001:00002b10       __real@3fa921f9f01b866e    80012e10     ani:dev.obj
 0001:00002b18       __real@40dfffc000000000    80012e18     ani:dev.obj
 0001:00002b20       _AvpARXRegisters           80012e20     av:modeset.obj
 0001:00002b38       _AvpGRXRegisters           80012e38     av:modeset.obj
 0001:00002b44       _AvpSRXRegisters           80012e44     av:modeset.obj
 0001:00002b50       _AvpFpDebug0               80012e50     av:modeset.obj
 0001:00002ba0       _AvpCRTCRegisters          80012ea0     av:modeset.obj
 0001:00002de8       _AvpRegisters              800130e8     av:modeset.obj
 0001:000035a0       _AvpMacrovisionPAL         800138a0     av:modeset.obj
 0001:000035a4       _AvpMacrovisionEnable      800138a4     av:modeset.obj
 0001:000035ac       _AvpMacrovision            800138ac     av:modeset.obj
 0001:000035d0       _AvpCCRegisters            800138d0     av:modeset.obj
 0001:00003620       _AvpSCARTEnable            80013920     av:modeset.obj
 0001:00003788       _AvpHDTVRegisters          80013a88     av:modeset.obj
 0001:000037c0       _AvpTVRegisters            80013ac0     av:modeset.obj
 0001:00003f24       _AvpCommonTVRegisters      80014224     av:modeset.obj
 0001:00003f50       __real@41000000            80014250     d3d8ntpr:state.obj
 0001:00003f58       __real@46293e5939a08cea    80014258     d3d8ntpr:clear.obj
 0001:00003f60       __real@407fff0000000000    80014260     d3d8ntpr:clear.obj
 0001:00003f68       __real@4b7fffff            80014268     d3d8ntpr:clear.obj
 0001:00003f6c       __real@477fff00            8001426c     d3d8ntpr:clear.obj
 0001:00003f70       __real@42800000            80014270     d3d8ntpr:lazy.obj
 0001:00003f74       __real@be596d0b            80014274     d3d8ntpr:lazy.obj
 0001:00003f78       __real@bdb8aa0a            80014278     d3d8ntpr:lazy.obj
 0001:00003f7c       ??_7CRefCount@@6B@         8001427c     bootsnd:bootsnd.obj
 0001:00003f7c       ??_7CDirectSoundSettings@@6B@ 8001427c     bootsnd:bootsnd.obj
 0001:00003f88       ??_7CDirectSoundVoiceSettings@@6B@ 80014288     bootsnd:bootsnd.obj
 0001:00003f94       __real@37aec33e            80014294     bootsnd:bootsnd.obj
 0001:00003f98       __real@473b8000            80014298     bootsnd:bootsnd.obj
 0001:00003f9c       ??_7?$CHeap@U_SGEHEAPRUNMARKER@@@@6B@ 8001429c     bootsnd:bootsnd.obj
 0001:00003fb0       ??_7CDirectSound@@6B@      800142b0     bootsnd:bootsnd.obj
 0001:00003fbc       ??_7CDirectSoundVoice@@6B@ 800142bc     bootsnd:bootsnd.obj
 0001:00003fc8       ??_7CDirectSoundBuffer@@6B@ 800142c8     bootsnd:bootsnd.obj
 0001:00003fd4       ??_7CMcpxVoiceClient@@6B@  800142d4     bootsnd:bootsnd.obj
 0001:00003ff0       ??_7CMcpxBufferSgeHeap@@6B@ 800142f0     bootsnd:bootsnd.obj
 0001:00004008       ??_7CDirectSoundBufferSettings@@6B@ 80014308     bootsnd:bootsnd.obj
 0001:00004014       ??_7CMcpxBuffer@@6B@       80014314     bootsnd:bootsnd.obj
 0001:00004030       ??_7CMcpxCore@@6B@         80014330     bootsnd:bootsnd.obj
 0001:00004034       __real@42c80000            80014334     bootsnd:bootsnd.obj
 0001:00004038       ??_7CMcpxAPU@@6BCMcpxCore@@@ 80014338     bootsnd:bootsnd.obj
 0001:0000403c       ??_7CMcpxAPU@@6BCRefCount@@@ 8001433c     bootsnd:bootsnd.obj
 0001:000040a0       @ExInterlockedAddLargeStatistic@8 800143a0 f   ex:intrlfst.obj
 0001:000040a8       @ExfInterlockedInsertHeadList@8 800143a8 f   ex:intrlfst.obj
 0001:000040c0       @ExfInterlockedInsertTailList@8 800143c0 f   ex:intrlfst.obj
 0001:000040d8       @ExfInterlockedRemoveHeadList@4 800143d8 f   ex:intrlfst.obj
 0001:000040f0       @InterlockedPopEntrySList@4 800143f0 f   ex:intrlfst.obj
 0001:000040f4       ExpInterlockedPopEntrySListResume 800143f4     ex:intrlfst.obj
 0001:00004106       ExpInterlockedPopEntrySListFault 80014406     ex:intrlfst.obj
 0001:00004114       @InterlockedPushEntrySList@8 80014414 f   ex:intrlfst.obj
 0001:00004134       @InterlockedFlushSList@4   80014434 f   ex:intrlfst.obj
 0001:00004158       @InterlockedExchange@8     80014458 f   ex:intrlfst.obj
 0001:00004160       @InterlockedIncrement@4    80014460 f   ex:intrlfst.obj
 0001:0000416c       @InterlockedDecrement@4    8001446c f   ex:intrlfst.obj
 0001:00004178       @InterlockedCompareExchange@12 80014478 f   ex:intrlfst.obj
 0001:00004184       @ExInterlockedCompareExchange64@12 80014484 f   ex:intrlfst.obj
 0001:000041a0       @InterlockedExchangeAdd@8  800144a0 f   ex:intrlfst.obj
 0001:000041a8       _ExAcquireReadWriteLockExclusive@4 800144a8 f   ex:rwlocka.obj
 0001:000041cc       _ExAcquireReadWriteLockShared@4 800144cc f   ex:rwlocka.obj
 0001:000041fc       _ExReleaseReadWriteLock@4  800144fc f   ex:rwlocka.obj
 0001:00004252       _InitializePool@0          80014552 f   ex:pool.obj
 0001:000042a1       _ExAllocatePoolWithTag@8   800145a1 f   ex:pool.obj
 0001:00004458       _ExFreePool@4              80014758 f   ex:pool.obj
 0001:000045b5       _ExQueryPoolBlockSize@4    800148b5 f   ex:pool.obj
 0001:000045d4       _ExAllocatePool@4          800148d4 f   ex:pool.obj
 0001:000045e5       _NtClearEvent@4            800148e5 f   ex:event.obj
 0001:00004616       _NtCreateEvent@16          80014916 f   ex:event.obj
 0001:00004681       _NtPulseEvent@8            80014981 f   ex:event.obj
 0001:000046c4       _NtQueryEvent@8            800149c4 f   ex:event.obj
 0001:00004700       _NtSetEvent@8              80014a00 f   ex:event.obj
 0001:00004743       _ExInitializeReadWriteLock@4 80014a43 f   ex:rwlock.obj
 0001:0000477c       _ExInterlockedAddLargeInteger@16 80014a7c f   ex:intrlock.obj
 0001:000047b0       _ExInterlockedExchangeAddLargeInteger@16 80014ab0 f   ex:intrlock.obj
 0001:000047d3       _ExpDeleteMutant@4         80014ad3 f   ex:mutant.obj
 0001:000047e5       _NtCreateMutant@12         80014ae5 f   ex:mutant.obj
 0001:0000481f       _NtReleaseMutant@8         80014b1f f   ex:mutant.obj
 0001:00004899       _NtQueryMutant@8           80014b99 f   ex:mutant.obj
 0001:000048e9       _XConfigChecksum@8         80014be9 f i ex:settings.obj
 0001:00004913       _ExpReadEEPROMIntoCache@0  80014c13 f   ex:settings.obj
 0001:00004966       _ExpReadEEPROMSection@16   80014c66 f   ex:settings.obj
 0001:000049c7       _ExpWriteEEPROM@12         80014cc7 f   ex:settings.obj
 0001:00004a30       _ExpFindSettingInfo@12     80014d30 f   ex:settings.obj
 0001:00004a53       _ExQueryNonVolatileSetting@20 80014d53 f   ex:settings.obj
 0001:00004bdd       _ExSaveNonVolatileSetting@16 80014edd f   ex:settings.obj
 0001:00004df3       _ExReadWriteRefurbInfo@12  800150f3 f   ex:settings.obj
 0001:00004efc       _ExRaiseException@4        800151fc f   ex:raisests.obj
 0001:00004f94       _ExRaiseStatus@4           80015294 f   ex:raisests.obj
 0001:00005046       _NtCreateSemaphore@16      80015346 f   ex:semphore.obj
 0001:0000509b       _NtQuerySemaphore@8        8001539b f   ex:semphore.obj
 0001:000050d7       _NtReleaseSemaphore@12     800153d7 f   ex:semphore.obj
 0001:0000515f       _ExpTimerDpcRoutine@16     8001545f f   ex:timer.obj
 0001:0000518f       _ExpDeleteTimer@4          8001548f f   ex:timer.obj
 0001:00005194       _NtCreateTimer@12          80015494 f   ex:timer.obj
 0001:000051fd       _NtCancelTimer@8           800154fd f   ex:timer.obj
 0001:00005299       _NtQueryTimer@8            80015599 f   ex:timer.obj
 0001:000052fd       _ExpTimerApcRoutine@20     800155fd f   ex:timer.obj
 0001:0000535b       _ExTimerRundown@0          8001565b f   ex:timer.obj
 0001:00005406       _NtSetTimerEx@32           80015706 f   ex:timer.obj
 0001:00005574       _NtSetSystemTime@8         80015874 f   ex:systime.obj
 0001:000055f4       @HalRequestSoftwareInterrupt@4 800158f4 f   halx:ixswint.obj
 0001:00005628       @HalClearSoftwareInterrupt@4 80015928 f   halx:ixswint.obj
 0001:00005638       _HalpDispatchInterrupt     80015938 f   halx:ixswint.obj
 0001:00005667       _HalpDispatchInterrupt2ndEntry 80015967     halx:ixswint.obj
 0001:0000568c       _HalpApcInterrupt          8001598c f   halx:ixswint.obj
 0001:000056bb       _HalpApcInterrupt2ndEntry  800159bb     halx:ixswint.obj
 0001:000056f0       KiI8259MaskTable           800159f0     halx:ixirql.obj
 0001:00005770       FindHigherIrqlMask         80015a70     halx:ixirql.obj
 0001:000057f0       SWInterruptHandlerTable2   80015af0     halx:ixirql.obj
 0001:000057fc       SWInterruptLookUpTable     80015afc     halx:ixirql.obj
 0001:00005804       @KfRaiseIrql@4             80015b04 f   halx:ixirql.obj
 0001:00005814       _KeRaiseIrqlToDpcLevel@0   80015b14 f   halx:ixirql.obj
 0001:00005824       _KeRaiseIrqlToSynchLevel@0 80015b24 f   halx:ixirql.obj
 0001:00005834       @KfLowerIrql@4             80015b34 f   halx:ixirql.obj
 0001:000058a0       @HalEndSystemLevelInterrupt@4 80015ba0 f   halx:ixirql.obj
 0001:000058b0       @HalEndSystemInterrupt@4   80015bb0 f   halx:ixirql.obj
 0001:000058cc       Kei386EoiHelper@0          80015bcc f   halx:ixirql.obj
 0001:000059cc       _HalpEndSoftwareInterrupt@4 80015ccc f   halx:ixirql.obj
 0001:00005a50       _HalpDispatchInterrupt2@0  80015d50 f   halx:ixirql.obj
 0001:00005ab4       _KeGetCurrentIrql@0        80015db4 f   halx:ixirql.obj
 0001:00005abc       _HalpHardwareInterruptTable@0 80015dbc f   halx:ixirql.obj
 0001:00005abc       HalpHardwareInterrupt00    80015dbc     halx:ixirql.obj
 0001:00005abf       HalpHardwareInterrupt01    80015dbf     halx:ixirql.obj
 0001:00005ac2       HalpHardwareInterrupt02    80015dc2     halx:ixirql.obj
 0001:00005ac5       HalpHardwareInterrupt03    80015dc5     halx:ixirql.obj
 0001:00005ac8       HalpHardwareInterrupt04    80015dc8     halx:ixirql.obj
 0001:00005acb       HalpHardwareInterrupt05    80015dcb     halx:ixirql.obj
 0001:00005ace       HalpHardwareInterrupt06    80015dce     halx:ixirql.obj
 0001:00005ad1       HalpHardwareInterrupt07    80015dd1     halx:ixirql.obj
 0001:00005ad4       HalpHardwareInterrupt08    80015dd4     halx:ixirql.obj
 0001:00005ad7       HalpHardwareInterrupt09    80015dd7     halx:ixirql.obj
 0001:00005ada       HalpHardwareInterrupt10    80015dda     halx:ixirql.obj
 0001:00005add       HalpHardwareInterrupt11    80015ddd     halx:ixirql.obj
 0001:00005ae0       HalpHardwareInterrupt12    80015de0     halx:ixirql.obj
 0001:00005ae3       HalpHardwareInterrupt13    80015de3     halx:ixirql.obj
 0001:00005ae6       HalpHardwareInterrupt14    80015de6     halx:ixirql.obj
 0001:00005ae9       HalpHardwareInterrupt15    80015de9     halx:ixirql.obj
 0001:00005aec       _HalpInitializePICs@0      80015dec f   halx:ixirql.obj
 0001:00005b1c       _HalpKickoffReadSMBus@12   80015e1c f   halx:smbussci.obj
 0001:00005b55       _HalReadSMBusValue@16      80015e55 f   halx:smbussci.obj
 0001:00005bec       _HalpKickoffWriteSMBus@16  80015eec f   halx:smbussci.obj
 0001:00005c30       _HalWriteSMBusValue@16     80015f30 f   halx:smbussci.obj
 0001:00005cb2       _HalpWriteSMCResetOrShutdownComplete@4 80015fb2 f   halx:smbussci.obj
 0001:00005ce5       _HalMustCompletePacketsFinished@0 80015fe5 f   halx:smbussci.obj
 0001:00005d5c       _HalpWriteSMCAudioClampComplete@4 8001605c f   halx:smbussci.obj
 0001:00005d7d       _HalpCommonResetOrShutdown@0 8001607d f   halx:smbussci.obj
 0001:00005d99       _HalpCommonResetOrShutdownComplete@4 80016099 f   halx:smbussci.obj
 0001:00005d9f       _HalpReadSMCVideoModeComplete@4 8001609f f   halx:smbussci.obj
 0001:00005e17       _HalpTrayEjectWriteSMCNonSecureComplete@4 80016117 f   halx:smbussci.obj
 0001:00005e40       _HalpTrayEjectWriteSMCResumeComplete@4 80016140 f   halx:smbussci.obj
 0001:00005ed2       _HalpTrayOpenWriteSMCResumeComplete@4 800161d2 f   halx:smbussci.obj
 0001:00005f2c       _HalpHandleNextSMCInterruptReason@4 8001622c f   halx:smbussci.obj
 0001:000060a6       _HalpReadSMCInterruptReasonComplete@4 800163a6 f   halx:smbussci.obj
 0001:000060c1       _HalpReadSMCInterruptReason@0 800163c1 f   halx:smbussci.obj
 0001:000060d7       _HalpReleaseSMBusLock@0    800163d7 f   halx:smbussci.obj
 0001:0000611b       _HalpDpcForSMBusInterrupt@16 8001641b f   halx:smbussci.obj
 0001:000061bd       _HalpDpcForSMBusRetry@16   800164bd f   halx:smbussci.obj
 0001:000061c9       _HalpDpcForSystemControlInterrupt@16 800164c9 f   halx:smbussci.obj
 0001:000061ea       _HalEnableTrayEjectRequiresReboot@4 800164ea f   halx:smbussci.obj
 0001:000062a4       _HalReadSMCTrayState@8     800165a4 f   halx:smbussci.obj
 0001:00006328       _HalWriteSMCLEDStates@4    80016628 f   halx:smbussci.obj
 0001:00006347       _HalIsResetOrShutdownPending@0 80016647 f   halx:smbussci.obj
 0001:00006352       _HalInitiateShutdown@0     80016652 f   halx:smbussci.obj
 0001:00006380       _HalWriteSMCScratchRegister@4 80016680 f   halx:smbussci.obj
 0001:00006398       _HalEnableSecureTrayEject@0 80016698 f   halx:smbussci.obj
 0001:000063bc       HalpSpecialDismissLevelTable 800166bc     halx:ixsysint.obj
 0001:000063fc       @HalBeginSystemInterrupt@8 800166fc f   halx:ixsysint.obj
 0001:00006430       @HalBeginClockInterrupt@8  80016730     halx:ixsysint.obj
 0001:00006430       @HalBeginProfileInterrupt@8 80016730     halx:ixsysint.obj
 0001:000064b4       @HalBeginSMBusInterrupt@8  800167b4     halx:ixsysint.obj
 0001:000064b4       @HalBeginSystemControlInterrupt@8 800167b4     halx:ixsysint.obj
 0001:000064d8       _HalDisableSystemInterrupt@4 800167d8 f   halx:ixsysint.obj
 0001:00006504       _HalEnableSystemInterrupt@8 80016804 f   halx:ixsysint.obj
 0001:00006564       _HalGetInterruptVector@8   80016864 f   halx:ixsysbus.obj
 0001:00006586       _HalpReadPCISpaceUchar@12  80016886 f   halx:pcispace.obj
 0001:000065b5       _HalpReadPCISpaceUshort@12 800168b5 f   halx:pcispace.obj
 0001:000065e6       _HalpReadPCISpaceUlong@12  800168e6 f   halx:pcispace.obj
 0001:0000660d       _HalpWritePCISpaceUchar@12 8001690d f   halx:pcispace.obj
 0001:0000663e       _HalpWritePCISpaceUshort@12 8001693e f   halx:pcispace.obj
 0001:00006671       _HalpWritePCISpaceUlong@12 80016971 f   halx:pcispace.obj
 0001:00006698       _HalReadWritePCISpace@24   80016998 f   halx:pcispace.obj
 0001:0000670d       _HalHaltSystem@0           80016a0d f   halx:ixreboot.obj
 0001:00006711       _HalRegisterShutdownNotification@8 80016a11 f   halx:ixreboot.obj
 0001:00006798       _HalpReboot@0              80016a98 f   halx:ixreboot.obj
 0001:000067b9       _HalReturnToFirmware@4     80016ab9 f   halx:ixreboot.obj
 0001:00006874       _KeQueryPerformanceCounter@0 80016b74 f   halx:pmtimer.obj
 0001:000068b0       _KeQueryPerformanceFrequency@0 80016bb0 f   halx:pmtimer.obj
 0001:000068b8       _HalpAcpiTimerCarry@0      80016bb8 f   halx:pmtimer.obj
 0001:00006900       _KeStallExecutionProcessor@4 80016c00 f   halx:ixstall.obj
 0001:00006938       _READ_PORT_BUFFER_UCHAR@12 80016c38 f   halx:xxioacc.obj
 0001:00006950       _READ_PORT_BUFFER_USHORT@12 80016c50 f   halx:xxioacc.obj
 0001:00006968       _READ_PORT_BUFFER_ULONG@12 80016c68 f   halx:xxioacc.obj
 0001:00006980       _WRITE_PORT_BUFFER_UCHAR@12 80016c80 f   halx:xxioacc.obj
 0001:00006998       _WRITE_PORT_BUFFER_USHORT@12 80016c98 f   halx:xxioacc.obj
 0001:000069b0       _WRITE_PORT_BUFFER_ULONG@12 80016cb0 f   halx:xxioacc.obj
 0001:000069c8       _HalQueryRealTimeClock@4   80016cc8 f   halx:ixcmos.obj
 0001:00006ae0       _HalSetRealTimeClock@4     80016de0 f   halx:ixcmos.obj
 0001:00006bf4       @HalpIsCmosSubrangeValid@8 80016ef4 f   halx:ixcmos.obj
 0001:00006c08       _HalIsCmosValid@0          80016f08 f   halx:ixcmos.obj
 0001:00006c34       @HalpMarkCmosSubrangeValid@0 80016f34 f   halx:ixcmos.obj
 0001:00006c48       _HalMarkCmosValid@0        80016f48 f   halx:ixcmos.obj
 0001:00006c70       _HalpAcquireCmosSpinLock@0 80016f70 f   halx:ixcmos.obj
 0001:00006c7c       _HalpReleaseCmosSpinLock@0 80016f7c f   halx:ixcmos.obj
 0001:00006c84       _ExpInitializeExecutive@0  80016f84 f   init:init.obj
 0001:00006cc8       _ExpStartDebugMonitor@0    80016fc8 f   init:init.obj
 0001:00006e77       _Phase1Initialization@4    80017177 f   init:init.obj
 0001:00007048       _IoAllocateIrp@4           80017348 f   io:iosubs.obj
 0001:000070ba       @IofCallDriver@8           800173ba f   io:iosubs.obj
 0001:000070ed       _IoCancelThreadIo@4        800173ed f   io:iosubs.obj
 0001:00007158       _IoCheckShareAccess@20     80017458 f   io:iosubs.obj
 0001:00007285       _IoCreateDevice@24         80017585 f   io:iosubs.obj
 0001:000073f5       _IoCreateFile@40           800176f5 f   io:iosubs.obj
 0001:0000758f       _IoCreateSymbolicLink@8    8001788f f   io:iosubs.obj
 0001:000075cc       _IoDeleteDevice@4          800178cc f   io:iosubs.obj
 0001:00007608       _IoDeleteSymbolicLink@4    80017908 f   io:iosubs.obj
 0001:00007650       _IoDismountVolume@4        80017950 f   io:iosubs.obj
 0001:000076a1       _IoDismountVolumeByName@4  800179a1 f   io:iosubs.obj
 0001:000076d9       _IoFreeIrp@4               800179d9 f   io:iosubs.obj
 0001:00007701       _IoInitializeIrp@12        80017a01 f   io:iosubs.obj
 0001:00007754       _IoLockUserBuffer@8        80017a54 f   io:iosubs.obj
 0001:0000777b       _IoMarkIrpMustComplete@4   80017a7b f   io:iosubs.obj
 0001:00007797       _IoQueryFileInformation@20 80017a97 f   io:iosubs.obj
 0001:000077b4       _IoQueryVolumeInformation@20 80017ab4 f   io:iosubs.obj
 0001:000077d1       _IoQueueThreadIrp@4        80017ad1 f   io:iosubs.obj
 0001:00007804       _IoRemoveShareAccess@8     80017b04 f   io:iosubs.obj
 0001:0000784d       _IoSetShareAccess@16       80017b4d f   io:iosubs.obj
 0001:0000791b       _IopStartNextPacket@4      80017c1b f   io:iosubs.obj
 0001:0000794a       _IopStartNextPacketByKey@8 80017c4a f   io:iosubs.obj
 0001:0000797d       _IopStartNextPacketDeferred@4 80017c7d f   io:iosubs.obj
 0001:000079a7       _IoStartNextPacket@4       80017ca7 f   io:iosubs.obj
 0001:000079d2       _IoStartNextPacketByKey@8  80017cd2 f   io:iosubs.obj
 0001:00007a06       _IoStartPacket@12          80017d06 f   io:iosubs.obj
 0001:00007a6e       _IoBuildAsynchronousFsdRequest@24 80017d6e f   io:iosubs.obj
 0001:00007adf       _IoBuildDeviceIoControlRequest@36 80017ddf f   io:iosubs.obj
 0001:00007b87       _IoBuildSynchronousFsdRequest@28 80017e87 f   io:iosubs.obj
 0001:00007bdf       @IofCompleteRequest@8      80017edf f   io:iosubs.obj
 0001:00007dc9       _IoInvalidDeviceRequest@8  800180c9 f   io:iosubs.obj
 0001:00007de3       _IoSynchronousDeviceIoControlRequest@32 800180e3 f   io:iosubs.obj
 0001:00007e5e       _IoSynchronousFsdRequest@20 8001815e f   io:iosubs.obj
 0001:00007ec7       _NtCreateIoCompletion@16   800181c7 f   io:complete.obj
 0001:00007f0f       _NtQueryIoCompletion@8     8001820f f   io:complete.obj
 0001:00007f43       _NtRemoveIoCompletion@20   80018243 f   io:complete.obj
 0001:00007fea       _IoSetIoCompletion@20      800182ea f   io:complete.obj
 0001:00008032       _IopDeleteIoCompletion@4   80018332 f   io:complete.obj
 0001:00008069       _NtSetIoCompletion@20      80018369 f   io:complete.obj
 0001:000080a9       _NtCreateFile@36           800183a9 f   io:create.obj
 0001:000080d2       _NtOpenFile@24             800183d2 f   io:create.obj
 0001:000080f7       _NtDeleteFile@4            800183f7 f   io:misc.obj
 0001:00008165       _NtQueryFullAttributesFile@8 80018465 f   io:misc.obj
 0001:000081d2       _NtUserIoApcDispatcher@12  800184d2 f   io:misc.obj
 0001:00008200       _NtFlushBuffersFile@8      80018500 f   io:misc.obj
 0001:000082dd       _NtDeviceIoControlFile@40  800185dd f   io:devctrl.obj
 0001:00008309       _NtFsControlFile@40        80018609 f   io:devctrl.obj
 0001:00008335       _NtQueryDirectoryFile@40   80018635 f   io:dir.obj
 0001:0000844e       _IopGetModeInformation@4   8001874e f   io:qsinfo.obj
 0001:0000847c       _NtQueryInformationFile@20 8001877c f   io:qsinfo.obj
 0001:000086b7       _NtSetInformationFile@20   800189b7 f   io:qsinfo.obj
 0001:00008a6b       _NtQueryVolumeInformationFile@20 80018d6b f   io:qsfs.obj
 0001:00008bb7       _NtReadFile@32             80018eb7 f   io:read.obj
 0001:00008d83       _NtReadFileScatter@32      80019083 f   io:read.obj
 0001:00008f78       _NtWriteFile@32            80019278 f   io:write.obj
 0001:0000915a       _NtWriteFileGather@32      8001945a f   io:write.obj
 0001:00009365       _IopAllocateIrpCleanup@8   80019665 f   io:internal.obj
 0001:00009394       _IopAllocateIrpMustSucceed@4 80019694 f   io:internal.obj
 0001:000093c3       _IopCompleteUnloadOrDelete@8 800196c3 f   io:internal.obj
 0001:000093f1       _IopDropIrp@8              800196f1 f   io:internal.obj
 0001:0000942f       _IopExceptionCleanup@12    8001972f f   io:internal.obj
 0001:00009462       _IopDecrementDeviceObjectRef@4 80019762 f   io:internal.obj
 0001:00009492       _IopOpenRenameTarget@16    80019792 f   io:internal.obj
 0001:0000953d       _IopSynchronousApiServiceTail@20 8001983d f   io:internal.obj
 0001:00009570       _IopUserCompletion@20      80019870 f   io:internal.obj
 0001:00009580       _IopUserRundown@4          80019880 f   io:internal.obj
 0001:00009590       _IopCompleteRequest@20     80019890 f   io:internal.obj
 0001:00009765       _IopDisassociateThreadIrp@0 80019a65 f   io:internal.obj
 0001:000097cd       _IopQueryXxxInformation@24 80019acd f   io:internal.obj
 0001:00009908       _IopSynchronousServiceTail@20 80019c08 f   io:internal.obj
 0001:000099ac       _IopXxxControlFile@44      80019cac f   io:internal.obj
 0001:00009af0       _IopMountVolume@8          80019df0 f   io:parse.obj
 0001:00009b6a       _IoParseDevice@28          80019e6a f   io:parse.obj
 0001:00009f88       _IopParseFile@28           8001a288 f   io:parse.obj
 0001:00009fc8       _IopCloseFile@8            8001a2c8 f   io:objsup.obj
 0001:0000a0c6       _IopDeleteFile@4           8001a3c6 f   io:objsup.obj
 0001:0000a1dc       @IopAcquireFileObjectLock@4 8001a4dc f   io:filelock.obj
 0001:0000a1f4       @IopReleaseFileObjectLock@4 8001a4f4 f   io:filelock.obj
 0001:0000a210       @KiUnlockDispatcherDatabase@4 8001a510 f   ke:ctxswap.obj
 0001:0000a2a4       @KiSwapThread@0            8001a5a4 f   ke:ctxswap.obj
 0001:0000a3a0       _KiDispatchInterrupt@0     8001a6a0 f   ke:ctxswap.obj
 0001:0000a430       SwapContext                8001a730 f   ke:ctxswap.obj
 0001:0000a4c4       _KeFlushCurrentTb@0        8001a7c4 f   ke:ctxswap.obj
 0001:0000a4cc       _KeFlushCurrentTbAndInvalidateAllCaches@0 8001a7cc f   ke:ctxswap.obj
 0001:0000a4d4       _KeInvalidateAllCaches@0   8001a7d4 f   ke:ctxswap.obj
 0001:0000a4d7       _KeInitializeThread@32     8001a7d7 f   ke:thredobj.obj
 0001:0000a5d0       _KeAlertThread@8           8001a8d0 f   ke:thredobj.obj
 0001:0000a621       _KeAlertResumeThread@4     8001a921 f   ke:thredobj.obj
 0001:0000a688       _KeBoostPriorityThread@8   8001a988 f   ke:thredobj.obj
 0001:0000a6d1       _KeDisableApcQueuingThread@4 8001a9d1 f   ke:thredobj.obj
 0001:0000a6ef       _KeEnableApcQueuingThread@4 8001a9ef f   ke:thredobj.obj
 0001:0000a70d       _KeForceResumeThread@4     8001aa0d f   ke:thredobj.obj
 0001:0000a747       _KeQueryBasePriorityThread@4 8001aa47 f   ke:thredobj.obj
 0001:0000a778       _KeReadyThread@4           8001aa78 f   ke:thredobj.obj
 0001:0000a794       _KeResumeThread@4          8001aa94 f   ke:thredobj.obj
 0001:0000a7d3       _KeSetBasePriorityThread@8 8001aad3 f   ke:thredobj.obj
 0001:0000a8a1       _KeSetDisableBoostThread@8 8001aba1 f   ke:thredobj.obj
 0001:0000a8c3       _KeSetPriorityThread@8     8001abc3 f   ke:thredobj.obj
 0001:0000a8fc       _KeSuspendThread@4         8001abfc f   ke:thredobj.obj
 0001:0000a957       _KeTestAlertThread@4       8001ac57 f   ke:thredobj.obj
 0001:0000a999       _KeRundownThread@0         8001ac99 f   ke:thredobj.obj
 0001:0000a9ee       _KeTerminateThread@0       8001acee f   ke:thredobj.obj
 0001:0000aa88       _KiBugCheckDebugBreak@4    8001ad88 f   ke:bugcheck.obj
 0001:0000aace       _KeBugCheckEx@20           8001adce f   ke:bugcheck.obj
 0001:0000ab80       _KeEnterKernelDebugger@0   8001ae80 f   ke:bugcheck.obj
 0001:0000abb7       _KeBugCheck@4              8001aeb7 f   ke:bugcheck.obj
 0001:0000abc7       _KeInitializeTimerEx@8     8001aec7 f   ke:timerobj.obj
 0001:0000abf4       _KeCancelTimer@4           8001aef4 f   ke:timerobj.obj
 0001:0000ac23       _KeSetTimerEx@20           8001af23 f   ke:timerobj.obj
 0001:0000acdd       _KeSetTimer@16             8001afdd f   ke:timerobj.obj
 0001:0000acf7       _KeInitializeInterrupt@28  8001aff7 f   ke:intobj.obj
 0001:0000ad64       _KeConnectInterrupt@4      8001b064 f   ke:intobj.obj
 0001:0000ade4       _KeDisconnectInterrupt@4   8001b0e4 f   ke:intobj.obj
 0001:0000ae4c       @KiComputeWaitInterval@12  8001b14c f   ke:wait.obj
 0001:0000aea5       _KiAdjustQuantumThread@4   8001b1a5 f   ke:wait.obj
 0001:0000af0f       _KeDelayExecutionThread@12 8001b20f f   ke:wait.obj
 0001:0000b0e0       _KeWaitForMultipleObjects@32 8001b3e0 f   ke:wait.obj
 0001:0000b3e1       _KeWaitForSingleObject@20  8001b6e1 f   ke:wait.obj
 0001:0000b64c       _KeQueryInterruptTime@0    8001b94c f   ke:miscc.obj
 0001:0000b664       _KeQuerySystemTime@4       8001b964 f   ke:miscc.obj
 0001:0000b687       _KeSetSystemTime@8         8001b987 f   ke:miscc.obj
 0001:0000b7e1       _KeEnterCriticalRegion@0   8001bae1 f   ke:miscc.obj
 0001:0000b7ea       _KeLeaveCriticalRegion@0   8001baea f   ke:miscc.obj
 0001:0000b80c       _KeGetPcr@0                8001bb0c f   ke:i386pcr.obj
 0001:0000b814       _KeGetCurrentPrcb@0        8001bb14 f   ke:i386pcr.obj
 0001:0000b81c       _KeGetCurrentThread@0      8001bb1c f   ke:i386pcr.obj
 0001:0000b824       _KeIsExecutingDpc@0        8001bb24 f   ke:i386pcr.obj
 0001:0000b82a       _KeInitializeApc@28        8001bb2a f   ke:apcobj.obj
 0001:0000b86e       _KeFlushQueueApc@8         8001bb6e f   ke:apcobj.obj
 0001:0000b8b1       _KeInsertQueueApc@16       8001bbb1 f   ke:apcobj.obj
 0001:0000b8f0       _KeRemoveQueueApc@4        8001bbf0 f   ke:apcobj.obj
 0001:0000b94b       _KeInitializeDeviceQueue@4 8001bc4b f   ke:devquobj.obj
 0001:0000b967       _KeInsertDeviceQueue@8     8001bc67 f   ke:devquobj.obj
 0001:0000b995       _KeInsertByKeyDeviceQueue@12 8001bc95 f   ke:devquobj.obj
 0001:0000b9dd       _KeRemoveDeviceQueue@4     8001bcdd f   ke:devquobj.obj
 0001:0000ba02       _KeRemoveByKeyDeviceQueue@8 8001bd02 f   ke:devquobj.obj
 0001:0000ba51       _KeRemoveEntryDeviceQueue@8 8001bd51 f   ke:devquobj.obj
 0001:0000ba80       _KeInitializeDpc@12        8001bd80 f   ke:dpcobj.obj
 0001:0000ba9e       _KeRemoveQueueDpc@4        8001bd9e f   ke:dpcobj.obj
 0001:0000babf       _KeInsertQueueDpc@12       8001bdbf f   ke:dpcobj.obj
 0001:0000bb37       _KeInitializeEvent@12      8001be37 f   ke:eventobj.obj
 0001:0000bb58       _KeResetEvent@4            8001be58 f   ke:eventobj.obj
 0001:0000bb76       _KeSetEventBoostPriority@8 8001be76 f   ke:eventobj.obj
 0001:0000bbbe       _KePulseEvent@12           8001bebe f   ke:eventobj.obj
 0001:0000bc14       _KeSetEvent@12             8001bf14 f   ke:eventobj.obj
 0001:0000bc8b       _KeInitializeMutant@8      8001bf8b f   ke:mutntobj.obj
 0001:0000bce8       _KeReleaseMutant@16        8001bfe8 f   ke:mutntobj.obj
 0001:0000bd8d       _KeInitializeQueue@8       8001c08d f   ke:queueobj.obj
 0001:0000bdcf       _KeRundownQueue@4          8001c0cf f   ke:queueobj.obj
 0001:0000be18       @KiActivateWaiterQueue@4   8001c118 f   ke:queueobj.obj
 0001:0000be55       _KeRemoveQueue@12          8001c155 f   ke:queueobj.obj
 0001:0000c01d       @KiInsertQueue@12          8001c31d f   ke:queueobj.obj
 0001:0000c0bf       _KeInsertQueue@8           8001c3bf f   ke:queueobj.obj
 0001:0000c0e7       _KeInsertHeadQueue@8       8001c3e7 f   ke:queueobj.obj
 0001:0000c10f       _KeInitializeSemaphore@12  8001c40f f   ke:semphobj.obj
 0001:0000c133       _KeReleaseSemaphore@16     8001c433 f   ke:semphobj.obj
 0001:0000c1a8       _KeSaveFloatingPointState@4 8001c4a8 f   ke:misc.obj
 0001:0000c2f8       _KeRestoreFloatingPointState@4 8001c5f8 f   ke:misc.obj
 0001:0000c404       _KeInitializeProcess@8     8001c704 f   ke:procobj.obj
 0001:0000c426       _KeSetPriorityProcess@8    8001c726 f   ke:procobj.obj
 0001:0000c520       _KeSynchronizeExecution@12 8001c820 f   ke:intsup.obj
 0001:0000c550       _KiInterruptDispatch@0     8001c850 f   ke:intsup.obj
 0001:0000c580       _KiLevelInterruptDispatch@0 8001c880 f   ke:intsup.obj
 0001:0000c5a6       _KiInterruptTemplate       8001c8a6     ke:intsup.obj
 0001:0000c5d1       _KiInterruptTemplate2ndDispatch 8001c8d1     ke:intsup.obj
 0001:0000c5d6       _KiInterruptTemplateObject 8001c8d6     ke:intsup.obj
 0001:0000c5db       _KiInterruptTemplateDispatch 8001c8db     ke:intsup.obj
 0001:0000c5db       _KiUnexpectedInterrupt     8001c8db f   ke:intsup.obj
 0001:0000c5e3       _NtYieldExecution@0        8001c8e3 f   ke:yield.obj
 0001:0000c68c       _KeQuickRebootSystem@0     8001c98c f   ke:newsysbg.obj
 0001:0000c715       KiIdleLoop                 8001ca15 f   ke:newsysbg.obj
 0001:0000c758       _KeRetireDpcListLoop@0     8001ca58 f   ke:newsysbg.obj
 0001:0000c77f       KiRetireDpcList            8001ca7f f   ke:newsysbg.obj
 0001:0000c7f0       _KiStartUnexpectedRange@0  8001caf0     ke:trap.obj
 0001:0000c7f0       _KiUnexpectedInterrupt0    8001caf0 f   ke:trap.obj
 0001:0000c7fa       _KiUnexpectedInterrupt1    8001cafa f   ke:trap.obj
 0001:0000c804       _KiUnexpectedInterrupt2    8001cb04 f   ke:trap.obj
 0001:0000c80e       _KiUnexpectedInterrupt3    8001cb0e f   ke:trap.obj
 0001:0000c818       _KiUnexpectedInterrupt4    8001cb18 f   ke:trap.obj
 0001:0000c822       _KiUnexpectedInterrupt5    8001cb22 f   ke:trap.obj
 0001:0000c82c       _KiUnexpectedInterrupt6    8001cb2c f   ke:trap.obj
 0001:0000c836       _KiUnexpectedInterrupt7    8001cb36 f   ke:trap.obj
 0001:0000c840       _KiUnexpectedInterrupt8    8001cb40 f   ke:trap.obj
 0001:0000c84a       _KiUnexpectedInterrupt9    8001cb4a f   ke:trap.obj
 0001:0000c854       _KiUnexpectedInterrupt10   8001cb54 f   ke:trap.obj
 0001:0000c85e       _KiUnexpectedInterrupt11   8001cb5e f   ke:trap.obj
 0001:0000c868       _KiUnexpectedInterrupt12   8001cb68 f   ke:trap.obj
 0001:0000c872       _KiUnexpectedInterrupt13   8001cb72 f   ke:trap.obj
 0001:0000c87c       _KiUnexpectedInterrupt14   8001cb7c f   ke:trap.obj
 0001:0000c886       _KiUnexpectedInterrupt15   8001cb86 f   ke:trap.obj
 0001:0000c890       _KiEndUnexpectedRange@0    8001cb90     ke:trap.obj
 0001:0000c890       _KiContinueService         8001cb90 f   ke:trap.obj
 0001:0000c8c0       _KiRaiseExceptionService   8001cbc0 f   ke:trap.obj
 0001:0000c8e5       _KiServiceExit             8001cbe5     ke:trap.obj
 0001:0000c95e       _KiServiceExit2            8001cc5e     ke:trap.obj
 0001:0000c9f0       _KiExceptionExit           8001ccf0 f   ke:trap.obj
 0001:0000ca7f       _KiUnexpectedInterruptTail 8001cd7f f   ke:trap.obj
 0001:0000cae4       CommonDispatchException    8001cde4 f   ke:trap.obj
 0001:0000cb24       _KiTrap00                  8001ce24 f   ke:trap.obj
 0001:0000cb50       _KiTrap01                  8001ce50 f   ke:trap.obj
 0001:0000cb84       _KiTrap02                  8001ce84 f   ke:trap.obj
 0001:0000cbac       _KiDebugService            8001ceac f   ke:trap.obj
 0001:0000cbd8       _KiTrap03                  8001ced8 f   ke:trap.obj
 0001:0000cc1c       _KiTrap04                  8001cf1c f   ke:trap.obj
 0001:0000cc48       _KiTrap05                  8001cf48 f   ke:trap.obj
 0001:0000cc74       _KiTrap06                  8001cf74 f   ke:trap.obj
 0001:0000cca0       _KiTrap07                  8001cfa0 f   ke:trap.obj
 0001:0000ce08       _KiTrap08                  8001d108 f   ke:trap.obj
 0001:0000ce60       _KiTrap09                  8001d160 f   ke:trap.obj
 0001:0000ce88       _KiTrap0A                  8001d188 f   ke:trap.obj
 0001:0000ceb0       _KiTrap0B                  8001d1b0 f   ke:trap.obj
 0001:0000cedc       _KiTrap0E                  8001d1dc f   ke:trap.obj
 0001:0000cfd8       _KiTrap0F                  8001d2d8 f   ke:trap.obj
 0001:0000d000       _KiTrap10                  8001d300 f   ke:trap.obj
 0001:0000d044       _KiTrap11                  8001d344 f   ke:trap.obj
 0001:0000d06c       _KiTrap13                  8001d36c f   ke:trap.obj
 0001:0000d168       _KiFlushNPXState@0         8001d468 f   ke:trap.obj
 0001:0000d1ac       _KiSetHardwareTrigger@0    8001d4ac f   ke:trap.obj
 0001:0000d1b4       _KiSystemFatalException    8001d4b4 f   ke:trap.obj
 0001:0000d1c4       _NtContinue@8              8001d4c4 f   ke:trap.obj
 0001:0000d1f8       _ZwContinue@8              8001d4f8 f   ke:trap.obj
 0001:0000d208       _NtRaiseException@12       8001d508 f   ke:trap.obj
 0001:0000d234       _ZwRaiseException@12       8001d534 f   ke:trap.obj
 0001:0000d245       @KiInsertQueueApc@8        8001d545 f   ke:apcsup.obj
 0001:0000d311       _KiDeliverApc@0            8001d611 f   ke:apcsup.obj
 0001:0000d3ff       _KiDeliverUserApc@0        8001d6ff f   ke:apcsup.obj
 0001:0000d494       _KiDisableInterrupts@0     8001d794 f   ke:int.obj
 0001:0000d4a0       _KiRestoreInterrupts@4     8001d7a0 f   ke:int.obj
 0001:0000d4b4       @RDMSR@4                   8001d7b4 f   ke:cpu.obj
 0001:0000d4b8       _WRMSR@12                  8001d7b8 f   ke:cpu.obj
 0001:0000d4c9       _KiSuspendNop@20           8001d7c9 f   ke:thredsup.obj
 0001:0000d4cc       @KiFindReadyThread@4       8001d7cc f   ke:thredsup.obj
 0001:0000d554       @KiReadyThread@4           8001d854 f   ke:thredsup.obj
 0001:0000d60f       @KiSetPriorityThread@8     8001d90f f   ke:thredsup.obj
 0001:0000d6cd       _KiSuspendThread@12        8001d9cd f   ke:thredsup.obj
 0001:0000d6e7       @KiUnwaitThread@12         8001d9e7 f   ke:waitsup.obj
 0001:0000d7a2       @KiWaitSatisfyAll@4        8001daa2 f   ke:waitsup.obj
 0001:0000d81f       @KiWaitTest@8              8001db1f f   ke:waitsup.obj
 0001:0000d8f9       @KiTimerListExpire@8       8001dbf9 f   ke:dpcsup.obj
 0001:0000da08       _KiQuantumEnd@0            8001dd08 f   ke:dpcsup.obj
 0001:0000da86       _KiTimerExpiration@16      8001dd86 f   ke:dpcsup.obj
 0001:0000db32       _KiInitializeContextThread@20 8001de32 f   ke:thredini.obj
 0001:0000dbb7       @KiInsertTimerTable@20     8001deb7 f   ke:timersup.obj
 0001:0000dc67       @KiInsertTreeTimer@12      8001df67 f   ke:timersup.obj
 0001:0000dce7       @KiReinsertTreeTimer@12    8001dfe7 f   ke:timersup.obj
 0001:0000dd44       _KiPreInitializeKernel@0   8001e044 f   ke:kernlini.obj
 0001:0000dd94       _KiSwapIDT@0               8001e094 f   ke:kernlini.obj
 0001:0000ddc7       _KiInitializeKernel@0      8001e0c7 f   ke:kernlini.obj
 0001:0000defa       _KiEspFromTrapFrame@4      8001e1fa f   ke:exceptn.obj
 0001:0000df11       _KiEspToTrapFrame@8        8001e211 f   ke:exceptn.obj
 0001:0000df4c       _KeContextFromKframes@8    8001e24c f   ke:exceptn.obj
 0001:0000e026       _KeContextToKframes@12     8001e326 f   ke:exceptn.obj
 0001:0000e0f1       _KiDispatchException@16    8001e3f1 f   ke:exceptn.obj
 0001:0000e1a1       _KiRaiseException@20       8001e4a1 f   ke:raisexcp.obj
 0001:0000e1ce       _KiContinue@12             8001e4ce f   ke:raisexcp.obj
 0001:0000e20a       _Ki386CheckDivideByZeroTrap@4 8001e50a f   ke:trapc.obj
 0001:0000e3e0       _KiThreadStartup@4         8001e6e0 f   ke:threadbg.obj
 0001:0000e414       _KiComputeTimerTableIndex@20 8001e714 f   ke:timindex.obj
 0001:0000e49c       _KiInitSystem@0            8001e79c f   ke:kiinit.obj
 0001:0000e4e3       _FscBuildElementLruList@0  8001e7e3 f   mmcon:fscache.obj
 0001:0000e53e       _FscGrowCacheSize@4        8001e83e f   mmcon:fscache.obj
 0001:0000e632       _FscGetCacheSize@0         8001e932 f   mmcon:fscache.obj
 0001:0000e638       _FscLookupElement@8        8001e938 f   mmcon:fscache.obj
 0001:0000e690       _FscElementFromCacheBuffer@4 8001e990 f   mmcon:fscache.obj
 0001:0000e6c3       _FscTestForFullyCachedIo@16 8001e9c3 f   mmcon:fscache.obj
 0001:0000e731       _FscInvalidateBlocks@12    8001ea31 f   mmcon:fscache.obj
 0001:0000e7be       _FscInvalidateDevice@4     8001eabe f   mmcon:fscache.obj
 0001:0000e7ce       _FscInvalidateByteRange@16 8001eace f   mmcon:fscache.obj
 0001:0000e806       _FscInvalidateIdleBlocks@0 8001eb06 f   mmcon:fscache.obj
 0001:0000e87f       _FscShrinkCacheSize@4      8001eb7f f   mmcon:fscache.obj
 0001:0000ea1a       _FscSetCacheSize@4         8001ed1a f   mmcon:fscache.obj
 0001:0000ea80       _FscAllocateElement@0      8001ed80 f   mmcon:fscache.obj
 0001:0000eae1       @FscSetCacheBufferProtection@8 8001ede1 f   mmcon:fscache.obj
 0001:0000eb0f       _FscMapEmptyBuffer@16      8001ee0f f   mmcon:fscache.obj
 0001:0000ebaf       _FscUnmapBuffer@4          8001eeaf f   mmcon:fscache.obj
 0001:0000ec17       _FscDiscardBuffer@4        8001ef17 f   mmcon:fscache.obj
 0001:0000ec89       _FscWriteFFs@20            8001ef89 f   mmcon:fscache.obj
 0001:0000ee02       _FscMapBuffer@24           8001f102 f   mmcon:fscache.obj
 0001:0000f019       _FscWriteBuffer@24         8001f319 f   mmcon:fscache.obj
 0001:0000f10d       _FscPartiallyCachedRead@28 8001f40d f   mmcon:fscache.obj
 0001:0000f20b       _FscCachedRead@24          8001f50b f   mmcon:fscache.obj
 0001:0000f36f       _MmGetPhysicalAddress@4    8001f66f f   mmcon:physical.obj
 0001:0000f3bd       _MmAllocateContiguousMemoryEx@20 8001f6bd f   mmcon:physical.obj
 0001:0000f57f       _MmQueryAllocationSize@4   8001f87f f   mmcon:physical.obj
 0001:0000f5bc       _MmPersistContiguousMemory@12 8001f8bc f   mmcon:physical.obj
 0001:0000f61c       _MmMapIoSpace@12           8001f91c f   mmcon:physical.obj
 0001:0000f6e5       _MmUnmapIoSpace@8          8001f9e5 f   mmcon:physical.obj
 0001:0000f738       _MmLockUnlockBufferPages@12 8001fa38 f   mmcon:physical.obj
 0001:0000f7c7       _MmLockUnlockPhysicalPage@8 8001fac7 f   mmcon:physical.obj
 0001:0000f805       _MmLockSelectedIoPages@16  8001fb05 f   mmcon:physical.obj
 0001:0000f907       _MmUnlockSelectedIoPages@4 8001fc07 f   mmcon:physical.obj
 0001:0000f9b2       _MmAllocateContiguousMemory@4 8001fcb2 f   mmcon:physical.obj
 0001:0000f9c6       _MmFreeContiguousMemory@4  8001fcc6 f   mmcon:physical.obj
 0001:0000fa29       _MmClaimGpuInstanceMemory@8 8001fd29 f   mmcon:physical.obj
 0001:0000fb1d       _MmIsAddressValid@4        8001fe1d f   mmcon:mmsup.obj
 0001:0000fb6d       @MiMakePteProtectionMask@8 8001fe6d f   mmcon:mmsup.obj
 0001:0000fbf5       @MiMakeSystemPteProtectionMask@8 8001fef5 f   mmcon:mmsup.obj
 0001:0000fc39       @MiDecodePteProtectionMask@4 8001ff39 f   mmcon:mmsup.obj
 0001:0000fc71       _MmQueryAddressProtect@4   8001ff71 f   mmcon:mmsup.obj
 0001:0000fcd2       _MmQueryStatistics@4       8001ffd2 f   mmcon:mmsup.obj
 0001:0000fd48       _MiAllocateMappedMemory@24 80020048 f   mmcon:mmsup.obj
 0001:0000fe35       _MiFreeMappedMemory@12     80020135 f   mmcon:mmsup.obj
 0001:0000feef       _MmSetAddressProtect@12    800201ef f   mmcon:mmsup.obj
 0001:0000ff72       _MmAllocateSystemMemory@8  80020272 f   mmcon:mmsup.obj
 0001:0000ff90       _MmFreeSystemMemory@8      80020290 f   mmcon:mmsup.obj
 0001:0000ffa5       _MmAllocatePoolPages@4     800202a5 f   mmcon:mmsup.obj
 0001:0000ffc1       _MmFreePoolPages@4         800202c1 f   mmcon:mmsup.obj
 0001:0000ffd4       _MmCreateKernelStack@8     800202d4 f   mmcon:mmsup.obj
 0001:00010016       _MmDeleteKernelStack@8     80020316 f   mmcon:mmsup.obj
 0001:0001004d       _MmDbgAllocateMemory@8     8002034d f   mmcon:debugsup.obj
 0001:0001006c       _MmDbgFreeMemory@8         8002036c f   mmcon:debugsup.obj
 0001:00010081       _MmDbgQueryAvailablePages@0 80020381 f   mmcon:debugsup.obj
 0001:00010089       _MmDbgWriteCheck@8         80020389 f   mmcon:debugsup.obj
 0001:000100ed       _MmDbgReleaseAddress@8     800203ed f   mmcon:debugsup.obj
 0001:00010136       _MmDbgTranslatePhysicalAddress64@8 80020436 f   mmcon:debugsup.obj
 0001:00010163       _MmInitSystem@0            80020463 f   mmcon:mminit.obj
 0001:000102a4       _MmDiscardInitSection@0    800205a4 f   mmcon:mminit.obj
 0001:00010327       _MmRelocatePersistentMemory@0 80020627 f   mmcon:mminit.obj
 0001:000103ee       _MmPrepareToQuickRebootSystem@0 800206ee f   mmcon:mminit.obj
 0001:00010484       _NtQueryVirtualMemory@8    80020784 f   mmcon:virtual.obj
 0001:00010688       _NtProtectVirtualMemory@16 80020988 f   mmcon:virtual.obj
 0001:0001080b       _NtAllocateVirtualMemory@20 80020b0b f   mmcon:virtual.obj
 0001:00010c3f       _NtFreeVirtualMemory@12    80020f3f f   mmcon:virtual.obj
 0001:00010eeb       @MiInsertPageInFreeList@8  800211eb f   mmcon:pfnsup.obj
 0001:00010f91       _MiInsertPhysicalMemoryInFreeList@8 80021291 f   mmcon:pfnsup.obj
 0001:00010fb2       @MiRemovePageFromFreeList@4 800212b2 f   mmcon:pfnsup.obj
 0001:0001103c       @MiRemoveAnyPageFromFreeList@0 8002133c f   mmcon:pfnsup.obj
 0001:000110ca       @MiRemoveAnyPage@8         800213ca f   mmcon:pfnsup.obj
 0001:000110fb       @MiReleasePageOwnership@4  800213fb f   mmcon:pfnsup.obj
 0001:00011115       _MmReleaseDeveloperKitMemory@0 80021415 f   mmcon:pfnsup.obj
 0001:00011134       @MiRemoveDebuggerPage@8    80021434 f   mmcon:pfnsup.obj
 0001:000111c3       _MiReinitializePfnDatabase@0 800214c3 f   mmcon:pfnsup.obj
 0001:0001120f       @MiRemoveZeroPage@8        8002150f f   mmcon:pfnsup.obj
 0001:00011287       @MiRelocateBusyPage@4      80021587 f   mmcon:pfnsup.obj
 0001:00011431       _MmAccessFault@12          80021731 f   mmcon:mmfault.obj
 0001:00011509       _MiReleaseSystemPtes@12    80021809 f   mmcon:sysptes.obj
 0001:000115ea       _MiReserveSystemPtes@8     800218ea f   mmcon:sysptes.obj
 0001:00011740       @MiZeroAndFlushPtes@8      80021a40 f   mmcon:mmsupa.obj
 0001:0001175c       _MiRelocateBusyPageHelper@20 80021a5c f   mmcon:mmsupa.obj
 0001:00011794       _MiReorderTree@8           80021a94 f   mmcon:addrsup.obj
 0001:00011933       @MiGetNextNode@4           80021c33 f   mmcon:addrsup.obj
 0001:0001195d       @MiGetPreviousNode@4       80021c5d f   mmcon:addrsup.obj
 0001:00011983       @MiInsertNode@8            80021c83 f   mmcon:addrsup.obj
 0001:000119df       @MiRemoveNode@8            80021cdf f   mmcon:addrsup.obj
 0001:00011b71       @MiLocateAddressInTree@8   80021e71 f   mmcon:addrsup.obj
 0001:00011bac       _MiCheckForConflictingNode@12 80021eac f   mmcon:addrsup.obj
 0001:00011bd2       _MiFindEmptyAddressRangeInTree@16 80021ed2 f   mmcon:addrsup.obj
 0001:00011cbc       _MiFindEmptyAddressRangeDownTree@16 80021fbc f   mmcon:addrsup.obj
 0001:00011dcb       _MiInsertVad@4             800220cb f   mmcon:vadtree.obj
 0001:00011dfb       _MiRemoveVad@4             800220fb f   mmcon:vadtree.obj
 0001:00011e36       @MiLocateAddress@4         80022136 f   mmcon:vadtree.obj
 0001:00011e60       _MiFindEmptyAddressRange@12 80022160 f   mmcon:vadtree.obj
 0001:00011edd       _ObReferenceObjectByName@20 800221dd f   ob:obref.obj
 0001:00011efa       @ObfReferenceObject@4      800221fa f   ob:obref.obj
 0001:00011f0f       _ObReferenceObjectByPointer@8 8002220f f   ob:obref.obj
 0001:00011f3c       @ObfDereferenceObject@4    8002223c f   ob:obref.obj
 0001:00011f7a       _ObOpenObjectByPointer@12  8002227a f   ob:obref.obj
 0001:00011fca       _ObReferenceObjectByHandle@12 800222ca f   ob:obref.obj
 0001:00012041       _ObOpenObjectByName@16     80022341 f   ob:obref.obj
 0001:000120a2       _ObpDetachNamedObject@8    800223a2 f   ob:obhandle.obj
 0001:0001213c       _NtClose@4                 8002243c f   ob:obhandle.obj
 0001:000121c4       _NtDuplicateObject@12      800224c4 f   ob:obhandle.obj
 0001:00012211       _ObMakeTemporaryObject@4   80022511 f   ob:obhandle.obj
 0001:00012249       _NtMakeTemporaryObject@4   80022549 f   ob:obhandle.obj
 0001:00012278       _NtCreateDirectoryObject@8 80022578 f   ob:obdir.obj
 0001:000122b2       _NtOpenDirectoryObject@8   800225b2 f   ob:obdir.obj
 0001:000122c9       _NtQueryDirectoryObject@24 800225c9 f   ob:obdir.obj
 0001:000123b8       @ObpComputeHashIndex@4     800226b8 f   ob:obdir.obj
 0001:000123f2       _ObpLookupElementNameInDirectory@16 800226f2 f   ob:obdir.obj
 0001:00012496       _ObpReferenceObjectByName@24 80022796 f   ob:obdir.obj
 0001:0001268c       _ObpResolveLinkTarget@8    8002298c f   ob:oblink.obj
 0001:000127bd       _NtCreateSymbolicLinkObject@12 80022abd f   ob:oblink.obj
 0001:0001284f       _NtOpenSymbolicLinkObject@8 80022b4f f   ob:oblink.obj
 0001:00012866       _NtQuerySymbolicLinkObject@12 80022b66 f   ob:oblink.obj
 0001:000128dd       _ObpDeleteSymbolicLink@4   80022bdd f   ob:oblink.obj
 0001:000128eb       _NtSignalAndWaitForSingleObjectEx@20 80022beb f   ob:obwait.obj
 0001:00012a00       _NtWaitForSingleObjectEx@16 80022d00 f   ob:obwait.obj
 0001:00012a75       _NtWaitForMultipleObjectsEx@24 80022d75 f   ob:obwait.obj
 0001:00012bd6       _NtWaitForSingleObject@12  80022ed6 f   ob:obwait.obj
 0001:00012bec       _ObCreateObject@16         80022eec f   ob:obcreate.obj
 0001:00012cfa       _ObInsertObject@16         80022ffa f   ob:obcreate.obj
 0001:00012eea       _ObpExtendObjectHandleTable@0 800231ea f   ob:obtable.obj
 0001:00012fbc       _ObpCreateObjectHandle@4   800232bc f   ob:obtable.obj
 0001:0001300d       _ObpGetObjectHandleReference@4 8002330d f   ob:obtable.obj
 0001:00013058       _ObpGetObjectHandleContents@4 80023358 f   ob:obtable.obj
 0001:0001308a       _ObpDestroyObjectHandle@4  8002338a f   ob:obtable.obj
 0001:000130d9       _ObpCreatePermanentDirectoryObject@8 800233d9 f   ob:obmanage.obj
 0001:00013127       _ObInitSystem@0            80023427 f   ob:obmanage.obj
 0001:0001319d       _ObDissectName@16          8002349d f   ob:obmanage.obj
 0001:00013212       _PspQueueApcSpecialApc@20  80023512 f   ps:psctx.obj
 0001:0001321e       _NtQueueApcThread@20       8002351e f   ps:psctx.obj
 0001:00013298       _NtResumeThread@8          80023598 f   ps:psspnd.obj
 0001:000132d3       _NtSuspendThread@8         800235d3 f   ps:psspnd.obj
 0001:00013378       _PspSystemThreadStartup@8  80023678 f   ps:create.obj
 0001:000133a2       _PsCreateSystemThreadEx@40 800236a2 f   ps:create.obj
 0001:00013542       _PsSetCreateThreadNotifyRoutine@4 80023842 f   ps:create.obj
 0001:00013571       _PsCreateSystemThread@20   80023871 f   ps:create.obj
 0001:0001359b       _PsQueryStatistics@4       8002389b f   ps:psquery.obj
 0001:000135c8       _PspReaper@16              800238c8 f   ps:psdelete.obj
 0001:0001360c       _PsTerminateSystemThread@4 8002390c f   ps:psdelete.obj
 0001:00013726       _PsInitSystem@0            80023a26 f   ps:psinit.obj
 0001:00013770       @RtlUshortByteSwap@4       80023a70 f   ntosrtl:byteswap.obj
 0001:00013780       @RtlUlongByteSwap@4        80023a80 f   ntosrtl:byteswap.obj
 0001:00013788       _DbgBreakPoint@0           80023a88 f   ntosrtl:debug2.obj
 0001:0001378c       _DbgBreakPointWithStatus@4 80023a8c f   ntosrtl:debug2.obj
 0001:00013790       _RtlpBreakWithStatusInstruction@0 80023a90     ntosrtl:debug2.obj
 0001:00013794       _DbgPrint                  80023a94 f   ntosrtl:debug.obj
 0001:000137ee       _DbgPrompt@12              80023aee f   ntosrtl:debug.obj
 0001:0001382d       _DbgLoadImageSymbols@12    80023b2d f   ntosrtl:debug.obj
 0001:0001386f       _DbgUnLoadImageSymbols@12  80023b6f f   ntosrtl:debug.obj
 0001:00013899       _RtlAnsiStringToUnicodeString@12 80023b99 f   ntosrtl:nls.obj
 0001:00013937       _RtlUnicodeStringToAnsiString@12 80023c37 f   ntosrtl:nls.obj
 0001:000139ea       _RtlUpcaseUnicodeString@12 80023cea f   ntosrtl:nls.obj
 0001:00013abd       _RtlDowncaseUnicodeString@12 80023dbd f   ntosrtl:nls.obj
 0001:00013b8e       _RtlUpcaseUnicodeChar@4    80023e8e f   ntosrtl:nls.obj
 0001:00013bd9       _RtlDowncaseUnicodeChar@4  80023ed9 f   ntosrtl:nls.obj
 0001:00013c27       _RtlFreeAnsiString@4       80023f27 f   ntosrtl:nls.obj
 0001:00013c27       _RtlFreeUnicodeString@4    80023f27 f   ntosrtl:nls.obj
 0001:00013c41       _RtlCompareUnicodeString@12 80023f41 f   ntosrtl:nls.obj
 0001:00013d8f       _RtlEqualUnicodeString@12  8002408f f   ntosrtl:nls.obj
 0001:00013e93       _RtlCopyUnicodeString@8    80024193 f   ntosrtl:nls.obj
 0001:00013ef1       _RtlAppendUnicodeToString@8 800241f1 f   ntosrtl:nls.obj
 0001:00013f62       _RtlAppendUnicodeStringToString@8 80024262 f   ntosrtl:nls.obj
 0001:00013fc8       _RtlCreateUnicodeString@8  800242c8 f   ntosrtl:nls.obj
 0001:00014012       _RtlCopyString@8           80024312 f   ntosrtl:string.obj
 0001:00014054       _RtlUpperChar@4            80024354 f   ntosrtl:string.obj
 0001:000140b0       _RtlLowerChar@4            800243b0 f   ntosrtl:string.obj
 0001:0001410c       _RtlCompareString@12       8002440c f   ntosrtl:string.obj
 0001:00014198       _RtlEqualString@12         80024498 f   ntosrtl:string.obj
 0001:0001420b       _RtlPrefixString@12        8002450b f   ntosrtl:string.obj
 0001:00014291       _RtlUpperString@8          80024591 f   ntosrtl:string.obj
 0001:000142d1       _RtlAppendStringToString@8 800245d1 f   ntosrtl:string.obj
 0001:0001431d       _RtlAssert@16              8002461d f   ntosrtl:assert.obj
 0001:000143bb       _RtlRip@12                 800246bb f   ntosrtl:assert.obj
 0001:00014454       _RtlpExecuteHandlerForException@20 80024754 f   ntosrtl:xcptmisc.obj
 0001:0001445c       _RtlpExecuteHandlerForUnwind@20 8002475c f   ntosrtl:xcptmisc.obj
 0001:00014464       ExecuteHandler@20          80024764 f   ntosrtl:xcptmisc.obj
 0001:000144ec       _RtlpUnlinkHandler@4       800247ec f   ntosrtl:xcptmisc.obj
 0001:000144fc       _RtlCaptureContext@4       800247fc f   ntosrtl:xcptmisc.obj
 0001:0001452c       _RtlpCaptureContext@4      8002482c f   ntosrtl:xcptmisc.obj
 0001:000145a0       _RtlpGetStackLimits@8      800248a0 f   ntosrtl:xcptmisc.obj
 0001:000145bc       _RtlpGetRegistrationHead@0 800248bc f   ntosrtl:xcptmisc.obj
 0001:000145c4       _RtlpGetReturnAddress@0    800248c4 f   ntosrtl:xcptmisc.obj
 0001:000145c8       _RtlWalkFrameChain@12      800248c8 f   ntosrtl:stktrace.obj
 0001:00014670       _RtlCaptureStackBackTrace@16 80024970 f   ntosrtl:stktrace.obj
 0001:000146e0       _RtlIntegerToChar@16       800249e0 f   ntosrtl:cnvint.obj
 0001:000147d0       _RtlCharToInteger@12       80024ad0 f   ntosrtl:cnvint.obj
 0001:000148f2       _RtlUnicodeStringToInteger@12 80024bf2 f   ntosrtl:cnvint.obj
 0001:00014a72       _RtlIntegerToUnicodeString@12 80024d72 f   ntosrtl:cnvint.obj
 0001:00014ac0       _RtlCompareMemory@12       80024dc0 f   ntosrtl:movemem.obj
 0001:00014b10       _RtlCompareMemoryUlong@12  80024e10 f   ntosrtl:movemem.obj
 0001:00014b40       _RtlFillMemory@12          80024e40 f   ntosrtl:movemem.obj
 0001:00014b80       _RtlFillMemoryUlong@12     80024e80 f   ntosrtl:movemem.obj
 0001:00014ba0       _RtlZeroMemory@8           80024ea0 f   ntosrtl:movemem.obj
 0001:00014bd0       _RtlMoveMemory@12          80024ed0 f   ntosrtl:movemem.obj
 0001:00014c20       _RtlEnterCriticalSectionAndRegion@4 80024f20 f   ntosrtl:critsect.obj
 0001:00014c40       _RtlEnterCriticalSection@4 80024f40 f   ntosrtl:critsect.obj
 0001:00014c90       _RtlLeaveCriticalSectionAndRegion@4 80024f90 f   ntosrtl:critsect.obj
 0001:00014cf0       _RtlLeaveCriticalSection@4 80024ff0 f   ntosrtl:critsect.obj
 0001:00014d28       _RtlTryEnterCriticalSection@4 80025028 f   ntosrtl:critsect.obj
 0001:00014d70       _RtlExtendedLargeIntegerDivide@16 80025070 f   ntosrtl:largeint.obj
 0001:00014dcc       _RtlExtendedMagicDivide@20 800250cc f   ntosrtl:largeint.obj
 0001:00014e5c       _RtlExtendedIntegerMultiply@12 8002515c f   ntosrtl:largeint.obj
 0001:00014eb4       _RtlGetCallersAddress@8    800251b4 f   ntosrtl:stkwalk.obj
 0001:00014f4c       _RtlInitAnsiString@8       8002524c f   ntosrtl:stringsp.obj
 0001:00014f78       _RtlInitUnicodeString@8    80025278 f   ntosrtl:stringsp.obj
 0001:00014fa7       _RtlInitializeCriticalSection@4 800252a7 f   ntosrtl:resource.obj
 0001:00014fcc       _RtlMapGenericMask@8       800252cc f   ntosrtl:sertl.obj
 0001:0001501c       _RtlMultiByteToUnicodeN@20 8002531c f   ntosrtl:nlsxlat.obj
 0001:00015059       _RtlMultiByteToUnicodeSize@12 80025359 f   ntosrtl:nlsxlat.obj
 0001:0001506a       _RtlUnicodeToMultiByteSize@12 8002536a f   ntosrtl:nlsxlat.obj
 0001:0001507b       _RtlUnicodeToMultiByteN@20 8002537b f   ntosrtl:nlsxlat.obj
 0001:000150bf       _RtlUpcaseUnicodeToMultiByteN@20 800253bf f   ntosrtl:nlsxlat.obj
 0001:00015173       _RtlNtStatusToDosError@4   80025473 f   ntosrtl:error.obj
 0001:0001524c       _RtlRaiseException@4       8002554c f   ntosrtl:raise.obj
 0001:000152e6       _RtlRaiseStatus@4          800255e6 f   ntosrtl:raisests.obj
 0001:0001530e       _ElapsedDaysToYears@4      8002560e f   ntosrtl:time.obj
 0001:0001537e       _DaysAndFractionToTime@12  8002567e f   ntosrtl:time.obj
 0001:000153b6       _RtlTimeToTimeFields@8     800256b6 f   ntosrtl:time.obj
 0001:000154ec       _RtlTimeFieldsToTime@8     800257ec f   ntosrtl:time.obj
 0001:0001567b       _RtlDispatchException@8    8002597b f   ntosrtl:exdsptch.obj
 0001:00015772       _RtlUnwind@16              80025a72 f   ntosrtl:exdsptch.obj
 0001:00015916       _RtlImageNtHeader@4        80025c16 f   ntosrtl:imagedir.obj
 0001:00015955       _RtlSectionTableFromVirtualAddress@12 80025c55 f   ntosrtl:imagedir.obj
 0001:00015990       _RtlAddressInSectionTable@12 80025c90 f   ntosrtl:imagedir.obj
 0001:000159bb       _RtlpImageDirectoryEntryToData32@20 80025cbb f   ntosrtl:imagedir.obj
 0001:00015a17       _RtlImageDirectoryEntryToData@16 80025d17 f   ntosrtl:imagedir.obj
 0001:00015a55       _LdrProcessRelocationBlock@16 80025d55 f   ntosrtl:ldrreloc.obj
 0001:00015ad1       _LdrRelocateImage@20       80025dd1 f   ntosrtl:ldrreloc.obj
 0001:00015b3c       _DebugService@12           80025e3c f   ntosrtl:debug3.obj
 0001:00015b56       _DebugUnLoadImageSymbols@8 80025e56 f   ntosrtl:debug3.obj
 0001:00015b76       _DebugPrint@4              80025e76 f   ntosrtl:debug3.obj
 0001:00015b9a       _DebugPrompt@8             80025e9a f   ntosrtl:debug3.obj
 0001:00015bbc       _DebugLoadImageSymbols@8   80025ebc f   ntosrtl:debug3.obj
 0001:00015bdc       _IdexDiskPollResetComplete@0 80025edc f   idexcon:disk.obj
 0001:00015bfd       _IdexDiskResetDevice@0     80025efd f   idexcon:disk.obj
 0001:00015c6c       _IdexDiskSelectDeviceAndSpinWhileBusy@0 80025f6c f   idexcon:disk.obj
 0001:00015cab       _IdexDiskNoTransferInterrupt@0 80025fab f   idexcon:disk.obj
 0001:00015cd9       _IdexDiskTransferInterrupt@0 80025fd9 f   idexcon:disk.obj
 0001:00015d57       _IdexDiskFinishGeneric@0   80026057 f   idexcon:disk.obj
 0001:00015d83       @IdexDiskStartVerify@4     80026083 f   idexcon:disk.obj
 0001:00015df8       _IdexDiskVerify@8          800260f8 f   idexcon:disk.obj
 0001:00015e64       _IdexDiskFinishReadWrite@0 80026164 f   idexcon:disk.obj
 0001:00015ed2       @IdexDiskStartReadWrite@4  800261d2 f   idexcon:disk.obj
 0001:00015f9c       _IdexDiskReadWrite@8       8002629c f   idexcon:disk.obj
 0001:0001606f       @IdexDiskStartFlushBuffers@4 8002636f f   idexcon:disk.obj
 0001:000160b8       _IdexDiskFlushBuffers@8    800263b8 f   idexcon:disk.obj
 0001:000160d6       _IdexDiskGetDriveGeometry@8 800263d6 f   idexcon:disk.obj
 0001:0001611c       _IdexDiskGetPartitionInfo@8 8002641c f   idexcon:disk.obj
 0001:00016150       _IdexDiskDeviceControl@8   80026450 f   idexcon:disk.obj
 0001:000161d4       _IdexDiskStartIo@8         800264d4 f   idexcon:disk.obj
 0001:0001625c       _IdexDiskShutdownSystem@0  8002655c f   idexcon:disk.obj
 0001:0001629a       _IdexDiskPartitionCreate@4 8002659a f   idexcon:disk.obj
 0001:000163b9       _IdexDiskParseDirectory@28 800266b9 f   idexcon:disk.obj
 0001:000164dc       _IdexDiskCreateQuick@0     800267dc f   idexcon:disk.obj
 0001:000165a8       @IdexChannelSpinWhileBusy@4 800268a8 f   idexcon:channel.obj
 0001:000165cf       @IdexChannelSpinWhileBusyAndNotDrq@4 800268cf f   idexcon:channel.obj
 0001:000165fa       _IdexChannelSetTimerPeriod@4 800268fa f   idexcon:channel.obj
 0001:0001661d       @IdexChannelPrepareBufferTransfer@8 8002691d f   idexcon:channel.obj
 0001:000166cc       _IdexChannelPrepareScatterGatherTransfer@12 800269cc f   idexcon:channel.obj
 0001:00016767       _IdexChannelInterrupt@8    80026a67 f   idexcon:channel.obj
 0001:0001677e       _IdexChannelDpcForIsr@16   80026a7e f   idexcon:channel.obj
 0001:00016787       _IdexChannelStartNextPacketStock@0 80026a87 f   idexcon:channel.obj
 0001:000167ee       _IdexChannelStartPacketStock@8 80026aee f   idexcon:channel.obj
 0001:00016856       _IdexChannelRestartCurrentPacket@0 80026b56 f   idexcon:channel.obj
 0001:0001686f       _IdexChannelAbortCurrentPacket@0 80026b6f f   idexcon:channel.obj
 0001:00016889       @IdexChannelInvalidParameterRequest@4 80026b89 f   idexcon:channel.obj
 0001:0001689d       _IdexChannelIdePassThroughInterrupt@0 80026b9d f   idexcon:channel.obj
 0001:00016921       _IdexChannelFinishIdePassThrough@0 80026c21 f   idexcon:channel.obj
 0001:00016934       _IdexChannelStartIdePassThrough@12 80026c34 f   idexcon:channel.obj
 0001:00016a23       _IdexChannelIssueImmediateCommand@8 80026d23 f   idexcon:channel.obj
 0001:00016a6c       _IdexChannelPollResetComplete@0 80026d6c f   idexcon:channel.obj
 0001:00016acd       _IdexChannelTimer@16       80026dcd f   idexcon:channel.obj
 0001:00016b63       _IdexChannelCreate@0       80026e63 f   idexcon:channel.obj
 0001:00016c34       _IdexCdRomPollResetComplete@0 80026f34 f   idexcon:cdrom.obj
 0001:00016c46       _IdexCdRomResetDevice@0    80026f46 f   idexcon:cdrom.obj
 0001:00016c85       _IdexCdRomSelectDeviceAndSpinWhileBusy@0 80026f85 f   idexcon:cdrom.obj
 0001:00016cc0       _IdexCdRomWritePacket@4    80026fc0 f   idexcon:cdrom.obj
 0001:00016d11       _IdexCdRomNoTransferInterrupt@0 80027011 f   idexcon:cdrom.obj
 0001:00016d4d       _IdexCdRomTransferInterrupt@0 8002704d f   idexcon:cdrom.obj
 0001:00016dd3       _IdexCdRomIssueAtapiRequest@20 800270d3 f   idexcon:cdrom.obj
 0001:00016e63       _IdexCdRomSetSpindleSpeed@8 80027163 f   idexcon:cdrom.obj
 0001:00016ee4       _IdexCdRomFinishSpeedReduction@0 800271e4 f   idexcon:cdrom.obj
 0001:00016efd       _IdexCdRomSpeedReductionRequested@0 800271fd f   idexcon:cdrom.obj
 0001:00016f2e       _IdexCdRomFinishSpindleSpeedRestore@0 8002722e f   idexcon:cdrom.obj
 0001:00016f41       _IdexCdRomCheckForRestoreSpindleSpeed@8 80027241 f   idexcon:cdrom.obj
 0001:00016fa2       _IdexCdRomFinishRequestSense@0 800272a2 f   idexcon:cdrom.obj
 0001:00017158       _IdexCdRomFinishGeneric@0  80027458 f   idexcon:cdrom.obj
 0001:000171c2       _IdexCdRomFinishGenericWithOverrun@0 800274c2 f   idexcon:cdrom.obj
 0001:000171ef       @IdexCdRomStartReadTOC@4   800274ef f   idexcon:cdrom.obj
 0001:0001727d       @IdexCdRomStartCheckVerify@4 8002757d f   idexcon:cdrom.obj
 0001:000172af       _IdexCdRomFinishGetDriveGeometry@0 800275af f   idexcon:cdrom.obj
 0001:0001731f       @IdexCdRomStartGetDriveGeometry@4 8002761f f   idexcon:cdrom.obj
 0001:00017354       @IdexCdRomStartRawRead@4   80027654 f   idexcon:cdrom.obj
 0001:00017475       @IdexCdRomStartSetSpindleSpeed@4 80027775 f   idexcon:cdrom.obj
 0001:000174a4       _IdexCdRomFinishStartSession@0 800277a4 f   idexcon:cdrom.obj
 0001:000174d5       @IdexCdRomStartStartSession@4 800277d5 f   idexcon:cdrom.obj
 0001:0001751e       _IdexCdRomFinishReadKey@0  8002781e f   idexcon:cdrom.obj
 0001:000175d7       @IdexCdRomStartReadKey@4   800278d7 f   idexcon:cdrom.obj
 0001:0001767e       @IdexCdRomStartSendKey@4   8002797e f   idexcon:cdrom.obj
 0001:00017738       @IdexCdRomStartEndSession@4 80027a38 f   idexcon:cdrom.obj
 0001:0001778a       _IdexCdRomStartReadStructure@4 80027a8a f   idexcon:cdrom.obj
 0001:00017857       _IdexCdRomFinishScsiPassThrough@0 80027b57 f   idexcon:cdrom.obj
 0001:00017879       @IdexCdRomStartScsiPassThrough@4 80027b79 f   idexcon:cdrom.obj
 0001:000178ea       _IdexCdRomFinishRead@0     80027bea f   idexcon:cdrom.obj
 0001:0001793e       _IdexCdRomStartRead@4      80027c3e f   idexcon:cdrom.obj
 0001:00017a38       _IdexCdRomRead@8           80027d38 f   idexcon:cdrom.obj
 0001:00017af5       _IdexCdRomRequestDVDX2AuthenticationPage@4 80027df5 f   idexcon:cdrom.obj
 0001:00017b84       _IdexCdRomRequestDVDX2ControlData@4 80027e84 f   idexcon:cdrom.obj
 0001:00017bf2       _IdexCdRomDecryptHostChallengeResponseTable@4 80027ef2 f   idexcon:cdrom.obj
 0001:00017c5f       _IdexCdRomAuthenticationChallenge@16 80027f5f f   idexcon:cdrom.obj
 0001:00017d59       _IdexCdRomAuthenticationSequence@0 80028059 f   idexcon:cdrom.obj
 0001:00017e8b       _IdexCdRomDeviceControl@8  8002818b f   idexcon:cdrom.obj
 0001:00017f39       _IdexCdRomStartIo@8        80028239 f   idexcon:cdrom.obj
 0001:00018040       _IdexCdRomTrayOpenNotification@0 80028340 f   idexcon:cdrom.obj
 0001:00018059       _IdexCdRomCreateQuick@0    80028359 f   idexcon:cdrom.obj
 0001:00018103       _IdexDriverIrpReturnSuccess@8 80028403 f   idexcon:driver.obj
 0001:00018117       _IdexBugCheckWorker@8      80028417 f   idexcon:driver.obj
 0001:0001812b       _RawxDeleteVolumeDevice@4  8002842b f   raw:mountvol.obj
 0001:0001814a       _RawxMountVolume@4         8002844a f   raw:mountvol.obj
 0001:0001820e       _RawxAcquireGlobalMutexExclusive@0 8002850e f   raw:synch.obj
 0001:00018221       _RawxReleaseGlobalMutex@0  80028521 f   raw:synch.obj
 0001:0001824c       _RawxAcquireVolumeMutexExclusive@4 8002854c f   raw:synch.obj
 0001:00018264       _RawxAcquireVolumeMutexShared@4 80028564 f   raw:synch.obj
 0001:0001827c       _RawxReleaseVolumeMutex@4  8002857c f   raw:synch.obj
 0001:000182ac       _RawxVolumeIoCompletion@12 800285ac f   raw:driver.obj
 0001:00018304       _RawxPassIrpDownToTargetDevice@8 80028604 f   raw:driver.obj
 0001:00018390       _RawxFsdCleanup@8          80028690 f   raw:cleanup.obj
 0001:000183cc       _RawxDismountVolume@4      800286cc f   raw:fsctrl.obj
 0001:0001842b       _RawxQueryVolumeSizeInformation@8 8002872b f   raw:volinfo.obj
 0001:000184a4       _RawxFsdQueryVolumeInformation@8 800287a4 f   raw:volinfo.obj
 0001:0001857a       _RawxFsdQueryInformation@8 8002887a f   raw:fileinfo.obj
 0001:000185b9       _RawxFsdClose@8            800288b9 f   raw:close.obj
 0001:000185fe       _RawxFsdCreate@8           800288fe f   raw:create.obj
 0001:000186df       _FatxCreateVolumeDevice@16 800289df f   fatx:mountvol.obj
 0001:000187a5       _FatxDeleteVolumeDevice@4  80028aa5 f   fatx:mountvol.obj
 0001:000187d7       _FatxProcessBootSector@12  80028ad7 f   fatx:mountvol.obj
 0001:0001896c       _FatxMountVolume@4         80028c6c f   fatx:mountvol.obj
 0001:00018a49       _FatxCreateFcb@20          80028d49 f   fatx:fcbsup.obj
 0001:00018bb8       _FatxFindOpenChildFcb@12   80028eb8 f   fatx:fcbsup.obj
 0001:00018c15       _FatxMoveClusterCacheEntryToTail@12 80028f15 f   fatx:fcbsup.obj
 0001:00018c74       _FatxFillEmptyClusterCacheEntry@20 80028f74 f   fatx:fcbsup.obj
 0001:00018ccf       _FatxFileByteOffsetToCluster@24 80028fcf f   fatx:fcbsup.obj
 0001:00019071       _FatxFileByteOffsetToPhysicalByteOffset@28 80029371 f   fatx:fcbsup.obj
 0001:00019102       _FatxAppendClusterRunsToClusterCache@16 80029402 f   fatx:fcbsup.obj
 0001:000191fe       _FatxInvalidateClusterCache@8 800294fe f   fatx:fcbsup.obj
 0001:00019272       _FatxExtendDirectoryAllocation@12 80029572 f   fatx:fcbsup.obj
 0001:00019317       _FatxIsDirectoryEmpty@12   80029617 f   fatx:fcbsup.obj
 0001:00019355       _FatxDeleteFile@16         80029655 f   fatx:fcbsup.obj
 0001:000193c7       _FatxDereferenceFcb@4      800296c7 f   fatx:fcbsup.obj
 0001:00019402       _FatxUpdateDirectoryEntry@12 80029702 f   fatx:fcbsup.obj
 0001:000194cc       _FatxMarkDirectoryEntryDeleted@12 800297cc f   fatx:fcbsup.obj
 0001:0001953b       _FatxDeleteFileAllocation@12 8002983b f   fatx:fcbsup.obj
 0001:000195a2       _FatxTruncateFileAllocation@16 800298a2 f   fatx:fcbsup.obj
 0001:0001962f       _FatxExtendFileAllocation@16 8002992f f   fatx:fcbsup.obj
 0001:000196d7       _FatxSetAllocationSize@24  800299d7 f   fatx:fcbsup.obj
 0001:00019770       _FatxAcquireGlobalMutexExclusive@0 80029a70 f   fatx:synch.obj
 0001:00019783       _FatxReleaseGlobalMutex@0  80029a83 f   fatx:synch.obj
 0001:000197ae       _FatxAcquireVolumeMutexExclusive@4 80029aae f   fatx:synch.obj
 0001:000197c6       _FatxAcquireVolumeMutexShared@4 80029ac6 f   fatx:synch.obj
 0001:000197de       _FatxReleaseVolumeMutex@4  80029ade f   fatx:synch.obj
 0001:0001980e       _FatxAcquireFileMutexExclusive@4 80029b0e f   fatx:synch.obj
 0001:00019826       _FatxAcquireFileMutexShared@4 80029b26 f   fatx:synch.obj
 0001:0001983e       _FatxReleaseFileMutex@4    80029b3e f   fatx:synch.obj
 0001:0001986e       _FatxInitializeDirectoryCluster@12 80029b6e f   fatx:allocsup.obj
 0001:0001989c       _FatxFreeClusters@16       80029b9c f   fatx:allocsup.obj
 0001:00019a11       _FatxInitializeAllocationSupport@8 80029d11 f   fatx:allocsup.obj
 0001:00019b4d       _FatxLinkClusterChains@16  80029e4d f   fatx:allocsup.obj
 0001:00019bcb       _FatxAllocateClusters@28   80029ecb f   fatx:allocsup.obj
 0001:00019ed7       _FatxFsdCleanup@8          8002a1d7 f   fatx:cleanup.obj
 0001:00019f96       _FatxSignalDismountUnblockEvent@4 8002a296 f   fatx:fsctrl.obj
 0001:00019fc1       _FatxDismountVolume@4      8002a2c1 f   fatx:fsctrl.obj
 0001:0001a09d       _FatxReadWriteVolumeMetadata@8 8002a39d f   fatx:fsctrl.obj
 0001:0001a17d       _FatxFsdFileSystemControl@8 8002a47d f   fatx:fsctrl.obj
 0001:0001a1d3       _FatxFindNextDirectoryEntry@28 8002a4d3 f   fatx:dirctrl.obj
 0001:0001a39e       _FatxFsdDirectoryControl@8 8002a69e f   fatx:dirctrl.obj
 0001:0001a5bb       _FatxFsdQueryVolumeInformation@8 8002a8bb f   fatx:volinfo.obj
 0001:0001a6b1       _FatxFsdFlushBuffers@8     8002a9b1 f   fatx:flush.obj
 0001:0001a6b1       _FatxFsdDeviceControl@8    8002a9b1 f   fatx:devctrl.obj
 0001:0001a73d       _FatxQueryNetworkOpenInformation@8 8002aa3d f   fatx:fileinfo.obj
 0001:0001a7bd       _FatxFsdQueryInformation@8 8002aabd f   fatx:fileinfo.obj
 0001:0001a8a0       _FatxSetBasicInformation@16 8002aba0 f   fatx:fileinfo.obj
 0001:0001a9e9       _FatxSetRenameInformation@8 8002ace9 f   fatx:fileinfo.obj
 0001:0001ac7f       _FatxSetDispositionInformation@16 8002af7f f   fatx:fileinfo.obj
 0001:0001acd3       _FatxSetEndOfFileInformation@16 8002afd3 f   fatx:fileinfo.obj
 0001:0001ad30       _FatxFsdSetInformation@8   8002b030 f   fatx:fileinfo.obj
 0001:0001ae7e       _FatxVolumeIoCompletion@12 8002b17e f   fatx:readwrit.obj
 0001:0001aed6       _FatxSignalIoEventCompletion@12 8002b1d6 f   fatx:readwrit.obj
 0001:0001aed6       _FscSignalIoEventCompletion@12 8002b1d6 f   mmcon:fscache.obj
 0001:0001aeeb       _FatxSynchronousIoTail@24  8002b1eb f   fatx:readwrit.obj
 0001:0001af79       _FatxNonCachedSynchronousIo@32 8002b279 f   fatx:readwrit.obj
 0001:0001b0f4       _FatxFullyCachedSynchronousIo@32 8002b3f4 f   fatx:readwrit.obj
 0001:0001b2b2       _FatxPartiallyCachedSynchronousIo@28 8002b5b2 f   fatx:readwrit.obj
 0001:0001b384       _FatxNonCachedAsynchronousIoCompletion@12 8002b684 f   fatx:readwrit.obj
 0001:0001b40d       _FatxStartNextAsynchronousIoEntry@12 8002b70d f   fatx:readwrit.obj
 0001:0001b47e       _FatxNonCachedAsynchronousIo@24 8002b77e f   fatx:readwrit.obj
 0001:0001b5df       _FatxFsdReadWrite@8        8002b8df f   fatx:readwrit.obj
 0001:0001b9b5       _FatxFsdClose@8            8002bcb5 f   fatx:close.obj
 0001:0001ba24       _FatxLookupElementNameInDirectory@28 8002bd24 f   fatx:create.obj
 0001:0001bc23       _FatxCheckDesiredAccess@16 8002bf23 f   fatx:create.obj
 0001:0001bc64       _FatxOpenTargetDirectory@20 8002bf64 f   fatx:create.obj
 0001:0001bcd5       _FatxCreateNewFile@36      8002bfd5 f   fatx:create.obj
 0001:0001be72       _FatxOverwriteExistingFile@20 8002c172 f   fatx:create.obj
 0001:0001bf56       _FatxFsdCreate@8           8002c256 f   fatx:create.obj
 0001:0001c4cc       _FatxIsValidFatFileName@4  8002c7cc f   fatx:fatsup.obj
 0001:0001c52a       _FatxFatTimestampToTime@4  8002c82a f   fatx:fatsup.obj
 0001:0001c5ac       _FatxTimeToFatTimestamp@8  8002c8ac f   fatx:fatsup.obj
 0001:0001c640       _FatxRoundToFatTime@4      8002c940 f   fatx:fatsup.obj
 0001:0001c671       _GdfxDeleteVolumeDevice@4  8002c971 f   gdfx:mountvol.obj
 0001:0001c6b0       _GdfxProcessVolumeDescriptor@8 8002c9b0 f   gdfx:mountvol.obj
 0001:0001c76f       _GdfxCreateVolumeDevice@12 8002ca6f f   gdfx:mountvol.obj
 0001:0001c87c       _GdfxMountVolume@4         8002cb7c f   gdfx:mountvol.obj
 0001:0001c93a       _GdfxCreateFcb@16          8002cc3a f   gdfx:fcbsup.obj
 0001:0001c9f4       _GdfxFindOpenChildFcb@12   8002ccf4 f   gdfx:fcbsup.obj
 0001:0001ca51       _GdfxDereferenceFcb@4      8002cd51 f   gdfx:fcbsup.obj
 0001:0001ca7d       _GdfxDismountVolume@4      8002cd7d f   gdfx:fsctrl.obj
 0001:0001cad1       _RawxFsdFileSystemControl@8 8002cdd1 f   raw:fsctrl.obj
 0001:0001cad1       _UdfxFsdFileSystemControl@8 8002cdd1 f   udfx:fsctrl.obj
 0001:0001cad1       _GdfxFsdFileSystemControl@8 8002cdd1 f   gdfx:fsctrl.obj
 0001:0001cb0e       _GdfxFindNextDirectoryEntry@24 8002ce0e f   gdfx:dirctrl.obj
 0001:0001cc3d       _GdfxFsdDirectoryControl@8 8002cf3d f   gdfx:dirctrl.obj
 0001:0001ce2b       _GdfxFsdQueryVolumeInformation@8 8002d12b f   gdfx:volinfo.obj
 0001:0001cef0       _GdfxQueryNetworkOpenInformation@12 8002d1f0 f   gdfx:fileinfo.obj
 0001:0001cf56       _GdfxFsdQueryInformation@8 8002d256 f   gdfx:fileinfo.obj
 0001:0001d00c       _UdfxFsdSetInformation@8   8002d30c f   udfx:fileinfo.obj
 0001:0001d00c       _RawxFsdSetInformation@8   8002d30c f   raw:fileinfo.obj
 0001:0001d00c       _GdfxFsdSetInformation@8   8002d30c f   gdfx:fileinfo.obj
 0001:0001d056       _GdfxNonCachedReadCompletion@12 8002d356 f   gdfx:read.obj
 0001:0001d056       _UdfxNonCachedReadCompletion@12 8002d356 f   udfx:read.obj
 0001:0001d08d       _GdfxFsdRead@8             8002d38d f   gdfx:read.obj
 0001:0001d223       _GdfxFsdClose@8            8002d523 f   gdfx:close.obj
 0001:0001d291       _GdfxLookupElementNameInDirectory@20 8002d591 f   gdfx:create.obj
 0001:0001d3c3       _GdfxFsdCreate@8           8002d6c3 f   gdfx:create.obj
 0001:0001d643       _UdfxDeleteVolumeDevice@4  8002d943 f   udfx:mountvol.obj
 0001:0001d682       _UdfxReadPhysicalSector@12 8002d982 f   udfx:mountvol.obj
 0001:0001d6c1       _UdfxRecognizeVolume@4     8002d9c1 f   udfx:mountvol.obj
 0001:0001d7de       _UdfxProcessAnchorVolumeDescriptor@8 8002dade f   udfx:mountvol.obj
 0001:0001d84b       _UdfxProcessPrimaryVolumeDescriptor@4 8002db4b f   udfx:mountvol.obj
 0001:0001d898       _UdfxProcessPartitionDescriptor@12 8002db98 f   udfx:mountvol.obj
 0001:0001d90d       _UdfxProcessLogicalVolumeDescriptor@12 8002dc0d f   udfx:mountvol.obj
 0001:0001d9c8       _UdfxProcessVolumeDescriptorSequence@12 8002dcc8 f   udfx:mountvol.obj
 0001:0001db26       _UdfxProcessFileSetDescriptor@12 8002de26 f   udfx:mountvol.obj
 0001:0001dc6c       _UdfxCreateVolumeDevice@12 8002df6c f   udfx:mountvol.obj
 0001:0001dd39       _UdfxMountVolume@4         8002e039 f   udfx:mountvol.obj
 0001:0001de4a       _UdfxCreateFcbFromFileEntry@24 8002e14a f   udfx:fcbsup.obj
 0001:0001e06f       _UdfxFindOpenChildFcb@12   8002e36f f   udfx:fcbsup.obj
 0001:0001e0cc       _UdfxDereferenceFcb@4      8002e3cc f   udfx:fcbsup.obj
 0001:0001e0f8       _UdfxVerifyDescriptor@16   8002e3f8 f   udfx:udfsup.obj
 0001:0001e11f       _UdfxEqualOSTACS0StringAndObjectString@12 8002e41f f   udfx:udfsup.obj
 0001:0001e181       _UdfxOSTACS0StringToObjectString@12 8002e481 f   udfx:udfsup.obj
 0001:0001e1e2       _UdfxUdfTimestampToTime@4  8002e4e2 f   udfx:udfsup.obj
 0001:0001e2ad       _UdfxMapLogicalSector@16   8002e5ad f   udfx:udfsup.obj
 0001:0001e2f1       _UdfxFsdDeviceControl@8    8002e5f1 f   udfx:devctrl.obj
 0001:0001e2f1       _GdfxFsdDeviceControl@8    8002e5f1 f   gdfx:devctrl.obj
 0001:0001e32c       _UdfxDismountVolume@4      8002e62c f   udfx:fsctrl.obj
 0001:0001e380       _UdfxReadNextFileIdentifierDescriptor@20 8002e680 f   udfx:dirctrl.obj
 0001:0001e57c       _UdfxFindNextFileIdentifierDescriptor@24 8002e87c f   udfx:dirctrl.obj
 0001:0001e61b       _UdfxFsdDirectoryControl@8 8002e91b f   udfx:dirctrl.obj
 0001:0001e857       _UdfxFsdQueryVolumeInformation@8 8002eb57 f   udfx:volinfo.obj
 0001:0001e924       _UdfxQueryNetworkOpenInformation@8 8002ec24 f   udfx:fileinfo.obj
 0001:0001e99a       _UdfxFsdQueryInformation@8 8002ec9a f   udfx:fileinfo.obj
 0001:0001ea4c       _UdfxFsdRead@8             8002ed4c f   udfx:read.obj
 0001:0001ebd8       _UdfxFsdClose@8            8002eed8 f   udfx:close.obj
 0001:0001ec46       _UdfxMapNextDirectorySector@4 8002ef46 f   udfx:create.obj
 0001:0001ecc1       _UdfxCopyPartialDirectoryBuffer@16 8002efc1 f   udfx:create.obj
 0001:0001ece2       _UdfxLookupElementNameInDirectory@20 8002efe2 f   udfx:create.obj
 0001:0001eebc       _UdfxFsdCreate@8           8002f1bc f   udfx:create.obj
 0001:0001f13d       _PhyClearMDIOLOCK@4        8002f43d f   phy:phy.obj
 0001:0001f171       _PhyReadReg@12             8002f471 f   phy:phy.obj
 0001:0001f1d1       _PhyWriteReg@12            8002f4d1 f   phy:phy.obj
 0001:0001f231       _PhyUpdateLinkState@4      8002f531 f   phy:phy.obj
 0001:0001f2b3       _PhyWaitForLinkUp@4        8002f5b3 f   phy:phy.obj
 0001:0001f2f0       _PhyInitialize@8           8002f5f0 f   phy:phy.obj
 0001:0001f497       _PhyGetLinkState@4         8002f797 f   phy:phy.obj
 0001:0001f4d6       __snprintf                 8002f7d6 f   libcntpr:snprintf.obj
 0001:0001f52d       _sprintf                   8002f82d f   libcntpr:sprintf.obj
 0001:0001f585       __vsnprintf                8002f885 f   libcntpr:vsnprint.obj
 0001:0001f5db       _vsprintf                  8002f8db f   libcntpr:vsprintf.obj
 0001:0001f634       __SEH_prolog               8002f934 f   libcntpr:sehprolg.obj
 0001:0001f66d       __SEH_epilog               8002f96d f   libcntpr:sehprolg.obj
 0001:0001f688       __except_handler3          8002f988 f   libcntpr:exsup3.obj
 0001:0001f745       __seh_longjmp_unwind@4     8002fa45 f   libcntpr:exsup3.obj
 0001:0001f760       _strstr                    8002fa60 f   libcntpr:strstr.obj
 0001:0001f7e0       __strupr                   8002fae0 f   libcntpr:strupr.obj
 0001:0001f810       _strncpy                   8002fb10 f   libcntpr:strncpy.obj
 0001:0001f910       __allmul                   8002fc10 f   libcntpr:llmul.obj
 0001:0001f950       _memmove                   8002fc50 f   libcntpr:memmove.obj
 0001:0001fc85       _wcslen                    8002ff85 f   libcntpr:wcslen.obj
 0001:0001fca0       __allshr                   8002ffa0 f   libcntpr:llshr.obj
 0001:0001fcd0       __alldiv                   8002ffd0 f   libcntpr:lldiv.obj
 0001:0001fd80       __aullshr                  80030080 f   libcntpr:ullshr.obj
 0001:0001fda0       __allshl                   800300a0 f   libcntpr:llshl.obj
 0001:0001fdbf       __flsbuf                   800300bf f   libcntpr:_flsbuf.obj
 0001:0001fe59       __output                   80030159 f   libcntpr:output.obj
 0001:000204c0       __global_unwind2           800307c0 f   libcntpr:exsup.obj
 0001:00020502       __local_unwind2            80030802 f   libcntpr:exsup.obj
 0001:0002055a       __NLG_Return2              8003085a     libcntpr:exsup.obj
 0001:0002056a       __abnormal_termination     8003086a f   libcntpr:exsup.obj
 0001:0002058d       __NLG_Notify1              8003088d f   libcntpr:exsup.obj
 0001:00020596       __NLG_Notify               80030896 f   libcntpr:exsup.obj
 0001:000205a9       __NLG_Dispatch             800308a9     libcntpr:exsup.obj
 0001:000205c0       _strchr                    800308c0 f   libcntpr:strchr.obj
 0001:000205c6       ___from_strstr_to_strchr   800308c6     libcntpr:strchr.obj
 0001:0002067c       _wctomb                    8003097c f   libcntpr:wctomb.obj
 0001:000206b0       __aulldvrm                 800309b0 f   libcntpr:ulldvrm.obj
 0001:00020745       _XepOpenImageFile@4        80030a45 f   ldrcon:loader.obj
 0001:0002077a       _XepReadImageFile@16       80030a7a f   ldrcon:loader.obj
 0001:000207bb       _XepCommitSectionPages@4   80030abb f   ldrcon:loader.obj
 0001:000207fc       _XepMarkSectionPagesReadOnly@4 80030afc f   ldrcon:loader.obj
 0001:0002084f       _XepDecommitSectionPages@4 80030b4f f   ldrcon:loader.obj
 0001:000208b4       _XepLoadSection@12         80030bb4 f   ldrcon:loader.obj
 0001:00020943       _XeLoadSection@4           80030c43 f   ldrcon:loader.obj
 0001:000209b2       _XeUnloadSection@4         80030cb2 f   ldrcon:loader.obj
 0001:000209ff       _XepResolveImageImports@8  80030cff f   ldrcon:loader.obj
 0001:00020a5c       _XepResolveNonKernelImageImports@0 80030d5c f   ldrcon:loader.obj
 0001:00020acd       _XepNotifyDebuggerOfImageLoad@0 80030dcd f   ldrcon:loader.obj
 0001:00020bab       _XepExtractCertificateKey@8 80030eab f   ldrcon:loader.obj
 0001:00020bdc       _XepExtractCertificateKeys@0 80030edc f   ldrcon:loader.obj
 0001:00020c29       _XeLoadImage@12            80030f29 f   ldrcon:loader.obj
 0001:00021041       _XeLoadAlternateDashboardImage@0 80031341 f   ldrcon:loader.obj
 0001:000210e7       _XeLoadDashboardImage@0    800313e7 f   ldrcon:loader.obj
 0001:0002117b       _XeLoadDashboardImageWithReason@8 8003147b f   ldrcon:loader.obj
 0001:000211de       _XeLoadTitleImage@4        800314de f   ldrcon:loader.obj
 0001:00021388       _XCVerifyPKCS1SigningFmt@12 80031688 f   xcryptk:xcbase.obj
 0001:00021436       _XCCalcKeyLen@4            80031736 f   xcryptk:xcbase.obj
 0001:00021443       _XCVerifyDigest@16         80031743 f   xcryptk:xcbase.obj
 0001:000214b3       _XCryptSHAInit@4           800317b3 f   xcryptk:xcbase.obj
 0001:000214c2       _XCryptSHAUpdate@12        800317c2 f   xcryptk:xcbase.obj
 0001:000214d7       _XCryptSHAFinal@8          800317d7 f   xcryptk:xcbase.obj
 0001:000214e9       _XCryptRC4Key@12           800317e9 f   xcryptk:xcbase.obj
 0001:000214fe       _XCryptRC4Crypt@12         800317fe f   xcryptk:xcbase.obj
 0001:00021513       _XCryptHMAC@28             80031813 f   xcryptk:xcbase.obj
 0001:00021628       _XCryptPKEncPublic@12      80031928 f   xcryptk:xcbase.obj
 0001:0002163d       _XCryptPKDecPrivate@12     8003193d f   xcryptk:xcbase.obj
 0001:00021652       _XCryptPKGetKeyLen@4       80031952 f   xcryptk:xcbase.obj
 0001:00021661       _XCryptVerifyPKCS1Signature@12 80031961 f   xcryptk:xcbase.obj
 0001:00021697       _XCryptModExp@20           80031997 f   xcryptk:xcbase.obj
 0001:000216b2       _XCryptDESKeyParity@8      800319b2 f   xcryptk:xcbase.obj
 0001:000216c4       _XCryptKeyTable@12         800319c4 f   xcryptk:xcbase.obj
 0001:000216e3       _XCryptBlockCrypt@20       800319e3 f   xcryptk:xcbase.obj
 0001:00021708       _XCryptBlockCryptCBC@28    80031a08 f   xcryptk:xcbase.obj
 0001:00021750       _XCryptCryptService@8      80031a50 f   xcryptk:xcbase.obj
 0001:00021755       _XcUpdateCrypto@8          80031a55 f   xcryptk:xcbase.obj
 0001:00021842       _XcSHAInit@4               80031b42 f   xcryptk:xcbase.obj
 0001:00021852       _XcSHAUpdate@12            80031b52 f   xcryptk:xcbase.obj
 0001:00021868       _XcSHAFinal@8              80031b68 f   xcryptk:xcbase.obj
 0001:0002187b       _XcRC4Key@12               80031b7b f   xcryptk:xcbase.obj
 0001:00021891       _XcRC4Crypt@12             80031b91 f   xcryptk:xcbase.obj
 0001:000218a7       _XcHMAC@28                 80031ba7 f   xcryptk:xcbase.obj
 0001:000218c9       _XcPKEncPublic@12          80031bc9 f   xcryptk:xcbase.obj
 0001:000218df       _XcPKDecPrivate@12         80031bdf f   xcryptk:xcbase.obj
 0001:000218f5       _XcPKGetKeyLen@4           80031bf5 f   xcryptk:xcbase.obj
 0001:00021905       _XcVerifyPKCS1Signature@12 80031c05 f   xcryptk:xcbase.obj
 0001:0002191b       _XcModExp@20               80031c1b f   xcryptk:xcbase.obj
 0001:00021937       _XcDESKeyParity@8          80031c37 f   xcryptk:xcbase.obj
 0001:0002194a       _XcKeyTable@12             80031c4a f   xcryptk:xcbase.obj
 0001:00021960       _XcBlockCrypt@20           80031c60 f   xcryptk:xcbase.obj
 0001:0002197c       _XcBlockCryptCBC@28        80031c7c f   xcryptk:xcbase.obj
 0001:0002199e       _XcCryptService@8          80031c9e f   xcryptk:xcbase.obj
 0001:000219b1       _RSA32Alloc@4              80031cb1 f   xcryptk:umkm.obj
 0001:000219c5       _RSA32Free@4               80031cc5 f   xcryptk:umkm.obj
 0001:000219d4       _AvpCalcWSSCRC@4           80031cd4 f   av:modeset.obj
 0001:00021a12       _AvpSetWSSBits@4           80031d12 f   av:modeset.obj
 0001:00021abc       _AvpEnableSCART@8          80031dbc f   av:modeset.obj
 0001:00021afc       _AvpSetMacrovisionMode@8   80031dfc f   av:modeset.obj
 0001:00021b90       _AvpCommitMacrovisionMode@8 80031e90 f   av:modeset.obj
 0001:00021bda       _AvSMCVideoModeToAVPack@4  80031eda f   av:modeset.obj
 0001:00021c12       _AvpQueryAvCapabilities@0  80031f12 f   av:modeset.obj
 0001:00021c8c       _AvSendTVEncoderOption@16  80031f8c f   av:modeset.obj
 0001:00021fae       _AvGetSavedDataAddress@0   800322ae f   av:modeset.obj
 0001:00021fb4       _AvSetSavedDataAddress@4   800322b4 f   av:modeset.obj
 0001:00021fc0       _AvRelocateSavedDataAddress@8 800322c0 f   av:modeset.obj
 0001:00022039       _AvSetDisplayMode@24       80032339 f   av:modeset.obj
 0001:000224c7       ??_ECMcpxAPU@@W7AEPAXI@Z   800327c7 f i bootsnd:bootsnd.obj
 0001:000224cf       _HalPulseHardwareMonitorPin@0 800327cf f   halx:xxhal.obj
 0001:000224fe       _HalInitSystemPhase0Quick@0 800327fe f   halx:xxhal.obj
 0001:00022508       _HalInitSystemPhase1@0     80032808 f   halx:xxhal.obj
 0001:000225f8       _HalStartProfileInterrupt@4 800328f8 f   halx:ixprofil.obj
 0001:00022658       _HalStopProfileInterrupt@4 80032958 f   halx:ixprofil.obj
 0001:00022698       _HalSetProfileInterval@4   80032998 f   halx:ixprofil.obj
 0001:000226f8       _HalpProfileInterrupt@0    800329f8 f   halx:ixprofil.obj
 0001:0002276a       _HalHandleNMI@0            80032a6a f   halx:ixnmi.obj
 0001:00022788       _HalpSystemControlInterrupt@0 80032a88 f   halx:sciinta.obj
 0001:000227fc       _HalpSMBusInterrupt@0      80032afc f   halx:smbinta.obj
 0001:00022858       _IopCopyTemplateFileName@8 80032b58 f   io:fsrtl.obj
 0001:000228a7       _IoCreateDirectoryEnumContext@8 80032ba7 f   io:fsrtl.obj
 0001:0002292e       _IoIsNameInExpression@8    80032c2e f   io:fsrtl.obj
 0001:000229a8       _KeClockInterrupt@0        80032ca8 f   ke:clockint.obj
 0001:00022b10       @RtlFindFirstSetRightMember@4 80032e10 f   ntosrtl:bitmapa.obj
 0001:00022b20       __chkstk                   80032e20 f   libcntpr:chkstk.obj
 0001:00022b20       __alloca_probe             80032e20     libcntpr:chkstk.obj
 0001:00022b30       _HalInitializeSuperIo@0    80032e30 f   halx:superio.obj
 0001:00022b90       __aulldiv                  80032e90 f   libcntpr:ulldiv.obj
 0001:00022c00       _rc4@12                    80032f00 f   rsa32k:rc4fast.obj
 0001:00022d4d       _rc4_key@12                8003304d f   rsa32k:rc4fast.obj
 0001:00022e40       _A_SHAInit@4               80033140 f   rsa32k:sha.obj
 0001:00022e80       _A_SHAUpdate@12            80033180 f   rsa32k:sha.obj
 0001:00022fa0       _A_SHAFinal@8              800332a0 f   rsa32k:sha.obj
 0001:00023060       _SHATransform@8            80033360 f   rsa32k:shafast.obj
 0001:00023bc0       _DWORDToBigEndian@12       80033ec0 f   rsa32k:uint4.obj
 0001:00023c00       _BSafeDecPrivate@12        80033f00 f   rsa32k:rsa_prv.obj
 0001:00023c90       _BSafeEncPublic@12         80033f90 f   rsa32k:rsa_pub.obj
 0001:00023d90       _BenalohSetup@12           80034090 f   rsa32k:benaloh.obj
 0001:00023ea0       _BenalohMod@12             800341a0 f   rsa32k:benaloh.obj
 0001:00023fa0       _BenalohModSquare@12       800342a0 f   rsa32k:benaloh.obj
 0001:00023fd0       _BenalohModExp@20          800342d0 f   rsa32k:benaloh.obj
 0001:00024330       _BenalohModRoot@32         80034630 f   rsa32k:benaloh.obj
 0001:000244e0       _deskey@8                  800347e0 f   rsa32k:deskey.obj
 0001:000246f0       _desparityonkey@8          800349f0 f   rsa32k:deskey.obj
 0001:00024740       _tripledes3key@8           80034a40 f   rsa32k:deskey.obj
 0001:00024780       _tripledes@16              80034a80 f   rsa32k:desport.obj
 0001:00024830       _des@16                    80034b30 f   rsa32k:desfast.obj
 0001:000258d0       _CBC@28                    80035bd0 f   rsa32k:modes.obj
 0001:00025b60       _BSafeGetPrvKeyParts@8     80035e60 f   rsa32k:rsa_key.obj
 0001:00025be0       _SetValDWORD@12            80035ee0 f   rsa32k:rsa_math.obj
 0001:00025c30       _DigitLen@8                80035f30 f   rsa32k:rsa_math.obj
 0001:00025c60       _BitLen@8                  80035f60 f   rsa32k:rsa_math.obj
 0001:00025ca0       _Compare@12                80035fa0 f   rsa32k:rsa_math.obj
 0001:00025cf0       _Multiply@16               80035ff0 f   rsa32k:rsa_math.obj
 0001:00025d60       _Square@12                 80036060 f   rsa32k:rsa_math.obj
 0001:00025df0       _EstimateQuotient@16       800360f0 f   rsa32k:rsa_math.obj
 0001:00025e60       _Mod@20                    80036160 f   rsa32k:rsa_math.obj
 0001:000260e0       _Add@16                    800363e0 f   rsa32k:rsafast.obj
 0001:00026124       _Sub@16                    80036424 f   rsa32k:rsafast.obj
 0001:00026168       _BenalohEstimateQuotient@12 80036468 f   rsa32k:rsafast.obj
 0001:00026190       _BaseMult@16               80036490 f   rsa32k:rsa_port.obj
 0001:000261f0       _Accumulate@16             800364f0 f   rsa32k:rsa_port.obj
 0001:000262c0       _Reduce@16                 800365c0 f   rsa32k:rsa_port.obj
 0001:00026390       _AccumulateSquares@12      80036690 f   rsa32k:rsa_port.obj
 0001:000263e0       _double_shift              800366e0     rsa32k:deskey.obj
 0001:000263f0       _DESParityTable            800366f0     rsa32k:deskey.obj
 0001:00026400       _Spbox                     80036700     rsa32k:spb.obj
 0001:00026c00       _Sel                       80036f00     rsa32k:spb.obj
 0002:00000000       _KdpAddBreakpoint@4        80037700 f   kd:kdbreak.obj
 0002:000000d0       _KdSetOwedBreakpoints@0    800377d0 f   kd:kdbreak.obj
 0002:0000019b       _KdpLowWriteContent@4      8003789b f   kd:kdbreak.obj
 0002:000001f3       _KdpDeleteBreakpoint@4     800378f3 f   kd:kdbreak.obj
 0002:00000230       _KdpDeleteBreakpointRange@8 80037930 f   kd:kdbreak.obj
 0002:0000026f       _KdpSuspendBreakpoint@4    8003796f f   kd:kdbreak.obj
 0002:00000292       _KdpSuspendAllBreakpoints@0 80037992 f   kd:kdbreak.obj
 0002:000002ab       _KdpLowRestoreBreakpoint@4 800379ab f   kd:kdbreak.obj
 0002:0000030e       _KdpRestoreAllBreakpoints@0 80037a0e f   kd:kdbreak.obj
 0002:0000033b       _KdDeleteAllBreakpoints@0  80037a3b f   kd:kdbreak.obj
 0002:0000035d       _KdpMoveMemory@12          80037a5d f   kd:kdmove.obj
 0002:00000481       _KdpQuickMoveMemory@12     80037b81 f   kd:kdmove.obj
 0002:0000049f       _KdEnterDebugger@8         80037b9f f   kd:kdapi.obj
 0002:000004f0       _KdExitDebugger@4          80037bf0 f   kd:kdapi.obj
 0002:0000052a       _InternalBreakpointCheck@16 80037c2a f   kd:kdapi.obj
 0002:0000057e       _KdSetInternalBreakpoint@4 80037c7e f   kd:kdapi.obj
 0002:00000683       _KdGetInternalBreakpoint@4 80037d83 f   kd:kdapi.obj
 0002:00000733       _KdpReadVirtualMemory@8    80037e33 f   kd:kdapi.obj
 0002:00000792       _KdpWriteVirtualMemory@8   80037e92 f   kd:kdapi.obj
 0002:000007df       _KdpGetContext@12          80037edf f   kd:kdapi.obj
 0002:0000082e       _KdpSetContext@12          80037f2e f   kd:kdapi.obj
 0002:00000877       _KdpWriteBreakpoint@8      80037f77 f   kd:kdapi.obj
 0002:000008b7       _KdpRestoreBreakpoint@8    80037fb7 f   kd:kdapi.obj
 0002:000008f4       _SymNumFor@4               80037ff4 f   kd:kdapi.obj
 0002:00000922       _PotentialNewSymbol@4      80038022 f   kd:kdapi.obj
 0002:000009d5       _DumpTraceData@4           800380d5 f   kd:kdapi.obj
 0002:000009ff       _TraceDataRecordCallInfo@12 800380ff f   kd:kdapi.obj
 0002:00000aae       _SkippingWhichBP@8         800381ae f   kd:kdapi.obj
 0002:00000af1       _KdSetSpecialCall@8        800381f1 f   kd:kdapi.obj
 0002:00000b3e       _KdpReadPhysicalMemory@8   8003823e f   kd:kdapi.obj
 0002:00000be3       _KdpWritePhysicalMemory@8  800382e3 f   kd:kdapi.obj
 0002:00000c77       _KdpProcessInternalBreakpoint@4 80038377 f   kd:kdapi.obj
 0002:00000cd8       _KdpGetVersion@4           800383d8 f   kd:kdapi.obj
 0002:00000d54       _KdpNotSupported@4         80038454 f   kd:kdapi.obj
 0002:00000d7f       _KdpCauseBugCheck@4        8003847f f   kd:kdapi.obj
 0002:00000d90       _KdpWriteBreakPointEx@8    80038490 f   kd:kdapi.obj
 0002:00000e77       _KdpRestoreBreakPointEx@8  80038577 f   kd:kdapi.obj
 0002:00000f0a       _KdpSearchMemory@8         8003860a f   kd:kdapi.obj
 0002:000010a4       _KdpSearchHammingDistance@8 800387a4 f   kd:kdapi.obj
 0002:000010bf       _KdpSearchPhysicalPage@16  800387bf f   kd:kdapi.obj
 0002:0000113a       _KdpSearchPhysicalPageRange@0 8003883a f   kd:kdapi.obj
 0002:00001186       _KdpCheckTracePoint@8      80038886 f   kd:kdapi.obj
 0002:000015aa       _KdpCheckLowMemory@4       80038caa f   kd:kdapi.obj
 0002:000015de       _KdpSendWaitContinue@16    80038cde f   kd:kdapi.obj
 0002:00001900       _KdpReportExceptionStateChange@12 80039000 f   kd:kdapi.obj
 0002:00001951       _KdpReportLoadSymbolsStateChange@16 80039051 f   kd:kdapi.obj
 0002:00001a5f       _KdpQueryPerformanceCounter@4 8003915f f   kd:kdcmsup.obj
 0002:00001a77       _KdpComputeChecksum@8      80039177 f   kd:kdcomio.obj
 0002:00001a93       _KdpReceivePacketLeader@8  80039193 f   kd:kdcomio.obj
 0002:00001b30       _KdpReceiveString@8        80039230 f   kd:kdcomio.obj
 0002:00001b5c       _KdpSendString@8           8003925c f   kd:kdcomio.obj
 0002:00001b82       _KdpSendControlPacket@8    80039282 f   kd:kdcomio.obj
 0002:00001bb9       _KdpReceivePacket@16       800392b9 f   kd:kdcomio.obj
 0002:00001df7       _KdpSendPacket@12          800394f7 f   kd:kdcomio.obj
 0002:00001f05       _KdpIsTryFinallyReturn@8   80039605 f   kd:kdcpuapi.obj
 0002:00001f84       _regValue@8                80039684 f   kd:kdcpuapi.obj
 0002:00002015       _KdpIsSpecialCall@16       80039715 f   kd:kdcpuapi.obj
 0002:000021df       _KdpSetLoadState@8         800398df f   kd:kdcpuapi.obj
 0002:0000228c       _KdpGetStateChange@8       8003998c f   kd:kdcpuapi.obj
 0002:000022d9       _KdpReadControlSpace@8     800399d9 f   kd:kdcpuapi.obj
 0002:00002373       _KdpWriteControlSpace@8    80039a73 f   kd:kdcpuapi.obj
 0002:000023f0       _KdpReadIoSpace@8          80039af0 f   kd:kdcpuapi.obj
 0002:0000245e       _ExceptionRecord32To64@8   80039b5e f i kd:kdcpuapi.obj
 0002:000024b2       _KdpWriteIoSpace@8         80039bb2 f   kd:kdcpuapi.obj
 0002:00002521       _KdpReadMachineSpecificRegister@8 80039c21 f   kd:kdcpuapi.obj
 0002:00002591       _KdpWriteMachineSpecificRegister@8 80039c91 f   kd:kdcpuapi.obj
 0002:000025ed       _KdpGetReturnAddress@4     80039ced f   kd:kdcpuapi.obj
 0002:0000260b       _KdpGetCallNextOffset@8    80039d0b f   kd:kdcpuapi.obj
 0002:00002687       _KdpLevelChange@12         80039d87 f   kd:kdcpuapi.obj
 0002:0000278f       _KdpSetStateChange@16      80039e8f f   kd:kdcpuapi.obj
 0002:00002895       _KdPortInitialize@8        80039f95 f   kd:xxkdsup.obj
 0002:000028d4       _KdPortGetByte@4           80039fd4 f   kd:xxkdsup.obj
 0002:000028ea       _KdPortPollByte@4          80039fea f   kd:xxkdsup.obj
 0002:00002900       _KdPortPutByte@4           8003a000 f   kd:xxkdsup.obj
 0002:00002911       _CpSetBaud@8               8003a011 f   kd:ixkdcom.obj
 0002:00002959       _CpReadLsr@8               8003a059 f   kd:ixkdcom.obj
 0002:0000298b       _CpPutByte@8               8003a08b f   kd:ixkdcom.obj
 0002:000029af       _CpGetByte@12              8003a0af f   kd:ixkdcom.obj
 0002:00002a3b       _CpInitialize@12           8003a13b f   kd:ixkdcom.obj
 0002:00002a66       _KdRegisterDebuggerDataBlock@12 8003a166 f   kd:kdinit.obj
 0002:00002ac6       _KdLogDbgPrint@4           8003a1c6 f   kd:kdinit.obj
 0002:00002b9a       _KdInitSystem@4            8003a29a f   kd:kdinit.obj
 0002:00002d2b       _KdpPollBreakInWithPortLock@0 8003a42b f   kd:kdlock.obj
 0002:00002d65       _KdPollBreakIn@0           8003a465 f   kd:kdlock.obj
 0002:00002dd6       _KdpStub@20                8003a4d6 f   kd:kdtrap.obj
 0002:00002e31       _KdpContextToNt5Context@8  8003a531 f   kd:kdtrap.obj
 0002:00002f5a       _KdpContextFromNt5Context@8 8003a65a f   kd:kdtrap.obj
 0002:00003066       _KdpTrap@20                8003a766 f   kd:kdtrap.obj
 0002:00003384       _KdpSaveProcessorControlState@4 8003aa84 f   kd:procstat.obj
 0002:00003408       _KdpRestoreProcessorControlState@4 8003ab08 f   kd:procstat.obj
 0002:0000349c       _KdpPrintString@4          8003ab9c f   kd:kddbgio.obj
 0002:00003509       _KdpPromptString@8         8003ac09 f   kd:kddbgio.obj
 0002:000035cc       ??_C@_0N@FGDKACMC@xboxkrnl?4exe?$AA@ 8003accc     kd:kdinit.obj
 0002:000035dc       ??_C@_1BK@CDNGMPNA@?$AAx?$AAb?$AAo?$AAx?$AAk?$AAr?$AAn?$AAl?$AA?4?$AAe?$AAx?$AAe?$AA?$AA@ 8003acdc     kd:kdinit.obj
 0002:000035f8       ??_C@_09HMCDMPLD@?6?$CK?$CK?$CKRIP?3?5?$AA@ 8003acf8     kd:kdtrap.obj
 0002:00003604       ??_C@_0CL@KFGPJGLO@Break?0?5Ignore?0?5or?5Terminate?5Thre@ 8003ad04     kd:kdtrap.obj
 0003:00000000       _ExpNonVolatileSettingsLock 8003ad40     ex:settings.obj
 0003:0000001c       _ExpTimeRefreshLock        8003ad5c     ex:systime.obj
 0003:00000038       SWInterruptHandlerTable    8003ad78     halx:ixirql.obj
 0003:00000088       _HalpSMBusLock             8003adc8     halx:smbussci.obj
 0003:00000098       _HalpSMBusInterruptDpc     8003add8     halx:smbussci.obj
 0003:000000b4       _HalpSMBusRetryDpc         8003adf4     halx:smbussci.obj
 0003:000000d0       _HalpSMBusRetryTimer       8003ae10     halx:smbussci.obj
 0003:000000f8       _HalpSystemControlInterruptDpc 8003ae38     halx:smbussci.obj
 0003:00000114       _HalpTrayState             8003ae54     halx:smbussci.obj
 0003:00000118       _HalpTrayEjectCompleteEvent 8003ae58     halx:smbussci.obj
 0003:00000128       _HalpSMCScratchRegister    8003ae68     halx:smbussci.obj
 0003:0000012c       HalpIRR                    8003ae6c     halx:ixsysint.obj
 0003:00000130       HalpIRRActive              8003ae70     halx:ixsysint.obj
 0003:00000134       HalpIDR                    8003ae74     halx:ixsysint.obj
 0003:00000138       HalpEisaELCR               8003ae78     halx:ixsysint.obj
 0003:0000013c       HalpSpecialDismissTable    8003ae7c     halx:ixsysint.obj
 0003:0000017c       _HalpShutdownRegistrationList 8003aebc     halx:ixreboot.obj
 0003:00000184       HalpPerformanceCounterLow  8003aec4     halx:pmtimer.obj
 0003:00000188       HalpPerformanceCounterHigh1 8003aec8     halx:pmtimer.obj
 0003:0000018c       HalpPerformanceCounterHigh2 8003aecc     halx:pmtimer.obj
 0003:00000194       _KeBugCheckCount           8003aed4     ke:bugcheck.obj
 0003:000001a0       _KiIdleThread              8003aee0     ke:newsysbg.obj
 0003:000002ec       _KiPCR                     8003b02c     ke:newsysbg.obj
 0003:00000570       _KiIDT                     8003b2b0     ke:trap.obj
 0003:00000770       _KiUnexpectedEntrySize     8003b4b0     ke:trap.obj
 0003:00000770       _KiIDTEnd                  8003b4b0     ke:trap.obj
 0003:00000794       _FscSetCacheSizeEvent      8003b4d4     mmcon:fscache.obj
 0003:000007a4       _FscCollidedMapBufferEvent 8003b4e4     mmcon:fscache.obj
 0003:000007b4       _FscWaitingForElementEvent 8003b4f4     mmcon:fscache.obj
 0003:000007c4       _FscWriteFFsLock           8003b504     mmcon:fscache.obj
 0003:000007e0       _MmNumberOfInstanceMemoryBytes 8003b520     mmcon:physical.obj
 0003:000007e4       _MmAddressSpaceLock        8003b524     mmcon:virtual.obj
 0003:00000800       _MmRetailPfnRegion         8003b540     mmcon:pfnsup.obj
 0003:00000888       _MmDeveloperKitPfnRegion   8003b5c8     mmcon:pfnsup.obj
 0003:0000090c       _MmPfnRegions              8003b64c     mmcon:pfnsup.obj
 0003:0000091c       _MmPfnDatabase             8003b65c     mmcon:pfnsup.obj
 0003:00000920       _MmSystemPteRange          8003b660     mmcon:sysptes.obj
 0003:00000938       _MmDeveloperKitPteRange    8003b678     mmcon:sysptes.obj
 0003:00000950       _ObpDefaultObject          8003b690     ob:obmanage.obj
 0003:00000960       _PsReaperListHead          8003b6a0     ps:psinit.obj
 0003:00000968       _IdexCdRomPartitionLength  8003b6a8     idexcon:cdrom.obj
 0003:00000970       _IdexCdRomMaximumSpindleSpeed 8003b6b0     idexcon:cdrom.obj
 0003:00000974       _RawxGlobalMutex           8003b6b4     raw:synch.obj
 0003:00000990       _FatxGlobalMutex           8003b6d0     fatx:synch.obj
 0003:000009ac       _GdfxGlobalMutex           8003b6ec     gdfx:driver.obj
 0003:000009c8       _UdfxGlobalMutex           8003b708     udfx:driver.obj
 0003:000009f0       __fltused                  8003b730     libcntpr:stubs.obj
 0003:000009f4       __ldused                   8003b734     libcntpr:stubs.obj
 0003:00000a00       __NLG_Destination          8003b740     libcntpr:exsup.obj
 0003:00000a10       _XepLoaderLock             8003b750     ldrcon:loader.obj
 0003:00000a40       _updatedCryptoVector       8003b780     xcryptk:xcbase.obj
 0003:00000a90       _KdHighestUserAddress      8003b7d0     kd:kddata.obj
 0003:00000a94       _KdSystemRangeStart        8003b7d4     kd:kddata.obj
 0003:00000a98       _KdUserProbeAddress        8003b7d8     kd:kddata.obj
 0003:00000a9c       _KdLowestPhysicalPage      8003b7dc     kd:kddata.obj
 0003:00000aa0       _KdActiveProcessHead       8003b7e0     kd:kddata.obj
 0003:00000aa4       _KdLoadedModuleList        8003b7e4     kd:kddata.obj
 0003:00000aac       _KdPrintWritePointer       8003b7ec     kd:kddata.obj
 0003:00000ab0       _KdDebuggerDataBlock       8003b7f0     kd:kddata.obj
 0003:00000cb8       _TraceDataBufferPosition   8003b9f8     kd:kddata.obj
 0003:00000cbc       _KdpRetryCount             8003b9fc     kd:kddata.obj
 0003:00000cc0       _KdpNumberRetries          8003ba00     kd:kddata.obj
 0003:00000cc4       _KdpSearchCheckPoint       8003ba04     kd:kddata.obj
 0003:00000ccc       _KdPort                    8003ba0c     kd:xxkdsup.obj
 0003:00000ce8       _KdPortInformation         8003ba28     kd:xxkdsup.obj
 0003:00000d04       _KdDbgPortsPresent         8003ba44     kd:ixkdcom.obj
 0003:00000d20       ___fastflag                8003ba60     libcntpr:stubs.obj
 0003:00000d24       ___@@_PchSym_@00@UcylcurmivgUkirezgvUdrmwldhUwrivxgcUwctUwDwIUhvUpvimvoUlyqUrDIGUkivxlnkOlyq@d3d8ntpr 8003ba64     d3d8ntpr:precomp.obj
 0003:00000d40       _ExpSmallNPagedPoolLookasideLists 8003ba80     <common>
 0003:00000e00       _NonPagedPoolDescriptor    8003bb40     <common>
 0003:00001210       _HalpSMBusSMCInterruptPending 8003bf50     <common>
 0003:00001214       _HalpSMCResetOrShutdownDataValue 8003bf54     <common>
 0003:00001218       _HalpSMBusCompletionRoutine 8003bf58     <common>
 0003:0000121c       _HalpSMBusStatusBlock      8003bf5c     <common>
 0003:00001220       _HalpSMCResetOrShutdownCommandCode 8003bf60     <common>
 0003:00001224       _HalpSMBusRetries          8003bf64     <common>
 0003:00001228       _HalpTrayStateChangeCount  8003bf68     <common>
 0003:0000122c       _HalpShutdownRequestPending 8003bf6c     <common>
 0003:0000122d       _HalpSMCInterruptReason    8003bf6d     <common>
 0003:0000122e       _HalpTrayEjectDuringBootOccurred 8003bf6e     <common>
 0003:00001230       _KiDbgProfInt              8003bf70     <common>
 0003:00001234       _KiDpcDispatchNotify       8003bf74     <common>
 0003:00001240       _ExpCallAttributedProfileData 8003bf80     <common>
 0003:00001260       _XboxHardwareInfo          8003bfa0     <common>
 0003:00001268       _KiDbgClockInt             8003bfa8     <common>
 0003:0000126c       _KiDbgCtxSwapNotify        8003bfac     <common>
 0003:00001270       _IoPendingMustCompletePackets 8003bfb0     <common>
 0003:00001280       _KiIdleThreadStackLimit    8003bfc0     <common>
 0003:00004280       _KiDoubleFaultStackLimit   8003efc0     <common>
 0003:00005280       _KiSystemProcess           8003ffc0     <common>
 0003:000052a0       _KiIdleProcess             8003ffe0     <common>
 0003:000052bc       _KeHasQuickBooted          8003fffc     <common>
 0003:000052c0       _KeSystemTime              80040000     <common>
 0003:000052d0       _KeInterruptTime           80040010     <common>
 0003:000052dc       _KeTickCount               8004001c     <common>
 0003:000052e0       _KiHardwareTrigger         80040020     <common>
 0003:000052e8       _KiWaitInListHead          80040028     <common>
 0003:00005300       _KiTimerExpireDpc          80040040     <common>
 0003:0000531c       _KiDebugRoutine            8004005c     <common>
 0003:00005320       _KeBootTimeBias            80040060     <common>
 0003:00005328       _KeBootTime                80040068     <common>
 0003:00005340       _KiTimerTableListHead      80040080     <common>
 0003:00005440       _KiReadySummary            80040180     <common>
 0003:00005444       _KiIdleSummary             80040184     <common>
 0003:00005460       _KiDispatcherReadyListHead 800401a0     <common>
 0003:00005560       _KiBugCheckData            800402a0     <common>
 0003:00005580       _MmAllocatedPagesByUsage   800402c0     <common>
 0003:000055ac       _MmAvailablePages          800402ec     <common>
 0003:000055b0       _MmNextDefaultPageColor    800402f0     <common>
 0003:000055b4       _MmDeveloperKitMemoryReleased 800402f4     <common>
 0003:000055b8       _MmHighestPhysicalPage     800402f8     <common>
 0003:000055bc       _MmVirtualMemoryBytesReserved 800402fc     <common>
 0003:000055c0       _MmVadFreeHint             80040300     <common>
 0003:000055c4       _MmVadHint                 80040304     <common>
 0003:000055c8       _MmVadRoot                 80040308     <common>
 0003:000055cc       _FscWriteFFsPtes           8004030c     <common>
 0003:000055d0       _FscLruList                80040310     <common>
 0003:000055d8       _FscNumberOfCachePages     80040318     <common>
 0003:000055dc       _FscElementArray           8004031c     <common>
 0003:000055e0       _ObpWin32NamedObjectsDirectoryObject 80040320     <common>
 0003:000055e4       _ObpIoDevicesDirectoryObject 80040324     <common>
 0003:000055e8       _ObpDosDevicesDirectoryObject 80040328     <common>
 0003:000055ec       _ObpRootDirectoryObject    8004032c     <common>
 0003:00005600       _ObpObjectHandleTable      80040340     <common>
 0003:00005640       _ObpDosDevicesDriveLetterMap 80040380     <common>
 0003:000056c0       _PsReaperDpc               80040400     <common>
 0003:000056e0       _PspCreateThreadNotifyRoutine 80040420     <common>
 0003:00005700       _PspCreateThreadNotifyRoutineCount 80040440     <common>
 0003:00005720       _IdexCdRomStaticTransferBuffer 80040460     <common>
 0003:00005740       _IdexCdRomDeviceObject     80040480     <common>
 0003:00005760       _IdexChannelObject         800404a0     <common>
 0003:00005880       _IdexDiskPartitionArray    800405c0     <common>
 0003:000058d0       _PhyLockFlag               80040610     <common>
 0003:000058d4       _PhyLinkState              80040614     <common>
 0003:000058d8       _errno                     80040618     <common>
 0003:000058e0       _XeImageFileName           80040620     <common>
 0003:00005900       _XepDataTableEntry         80040640     <common>
 0003:00005948       _XepSendSectionDebugNotifications 80040688     <common>
 0003:0000594c       _g_bShortVersion           8004068c     <common>
 0003:00005950       _g_hThread                 80040690     <common>
 0003:00005954       _AvpMacrovisionMode        80040694     <common>
 0003:00005958       _AvpCapabilities           80040698     <common>
 0003:0000595c       _AvpCGMS                   8004069c     <common>
 0003:00005960       _KdpNtosDataTableEntry     800406a0     kd:kddata.obj
 0003:000059a8       _KdGlobalFlag              800406e8     kd:kddata.obj
 0003:000059ac       _KdEnteredDebugger         800406ec     kd:kddata.obj
 0003:000059b0       _KdpOweBreakpoint          800406f0     kd:kddata.obj
 0003:000059b4       _KdpDebuggerStructuresInitialized 800406f4     kd:kddata.obj
 0003:000059b5       _KdDebuggerEnabled         800406f5     kd:kddata.obj
 0003:000059b6       _KdDebuggerNotPresent      800406f6     kd:kddata.obj
 0003:000059b8       _KdpSearchAddressRangeEnd  800406f8     kd:kddata.obj
 0003:000059bc       _KdpSearchAddressRangeStart 800406fc     kd:kddata.obj
 0003:000059c0       _KdpSearchEndPageFrame     80040700     kd:kddata.obj
 0003:000059c4       _KdpSearchStartPageFrame   80040704     kd:kddata.obj
 0003:000059c8       _KdpSearchInProgress       80040708     kd:kddata.obj
 0003:000059cc       _KdpSearchPageHitIndex     8004070c     kd:kddata.obj
 0003:000059d0       _KdpSearchPageHitOffsets   80040710     kd:kddata.obj
 0003:000099d0       _KdpSearchPageHits         80044710     kd:kddata.obj
 0003:0000d9d0       _KdpDebuggerDataListHead   80048710     kd:kddata.obj
 0003:0000d9d8       _KdDebugParameters         80048718     kd:kddata.obj
 0003:0000d9e0       _KdpPacketIdExpected       80048720     kd:kddata.obj
 0003:0000d9e4       _KdpNextPacketIdToSend     80048724     kd:kddata.obj
 0003:0000d9e8       _KdpBreakpointInstruction  80048728     kd:kddata.obj
 0003:0000d9e9       _KdpControlCPressed        80048729     kd:kddata.obj
 0003:0000d9ea       _KdpControlCPending        8004872a     kd:kddata.obj
 0003:0000d9eb       _BreakpointsSuspended      8004872b     kd:kddata.obj
 0003:0000d9ec       _InstrCountInternal        8004872c     kd:kddata.obj
 0003:0000d9f0       _oldpc                     80048730     kd:kddata.obj
 0003:0000d9f4       _CallLevelChange           80048734     kd:kddata.obj
 0003:0000d9f8       _SymbolRecorded            80048738     kd:kddata.obj
 0003:0000d9fc       _InstructionsTraced        8004873c     kd:kddata.obj
 0003:0000da00       _WatchStepOverSuspended    80048740     kd:kddata.obj
 0003:0000da04       _WatchStepOverBreakAddr    80048744     kd:kddata.obj
 0003:0000da08       _WatchStepOverHandle       80048748     kd:kddata.obj
 0003:0000da0c       _WSOEsp                    8004874c     kd:kddata.obj
 0003:0000da10       _WSOThread                 80048750     kd:kddata.obj
 0003:0000da14       _WatchStepOver             80048754     kd:kddata.obj
 0003:0000da18       _IntBPsSkipping            80048758     kd:kddata.obj
 0003:0000da1c       _NumTraceDataSyms          8004875c     kd:kddata.obj
 0003:0000da1d       _NextTraceDataSym          8004875d     kd:kddata.obj
 0003:0000da1e       _TraceDataBufferFilled     8004875e     kd:kddata.obj
 0003:0000da20       _TraceDataSyms             80048760     kd:kddata.obj
 0003:0000e220       _TraceDataBuffer           80048f60     kd:kddata.obj
 0003:0000e2c0       _InternalBreakpointCheckDpc 80049000     kd:kddata.obj
 0003:0000e2e0       _InternalBreakpointTimer   80049020     kd:kddata.obj
 0003:0000e308       _KdpNumInternalBreakpoints 80049048     kd:kddata.obj
 0003:0000e30c       _InitialSP                 8004904c     kd:kddata.obj
 0003:0000e310       _KdNumberOfSpecialCalls    80049050     kd:kddata.obj
 0003:0000e318       _KdSpecialCalls            80049058     kd:kddata.obj
 0003:0000e340       _KdpNextCallLevelChange    80049080     kd:kddata.obj
 0003:0000e344       _KdpCurrentSymbolEnd       80049084     kd:kddata.obj
 0003:0000e348       _KdpCurrentSymbolStart     80049088     kd:kddata.obj
 0003:0000e350       _KdTimerDifference         80049090     kd:kddata.obj
 0003:0000e358       _KdTimerStop               80049098     kd:kddata.obj
 0003:0000e360       _KdTimerStart              800490a0     kd:kddata.obj
 0003:0000e368       _KdPerformanceCounterRate  800490a8     kd:kddata.obj
 0003:0000e370       _KdpInternalBPs            800490b0     kd:kddata.obj
 0003:0000e7d0       _KdpPathBuffer             80049510     kd:kddata.obj
 0003:0000f7d0       _KdpMessageBuffer          8004a510     kd:kddata.obj
 0003:000107d0       _KdpBreakpointTable        8004b510     kd:kddata.obj
 0003:000108d0       _KdPrintRolloverCount      8004b610     kd:kddata.obj
 0003:000108d8       _KdPrintCircularBuffer     8004b618     kd:kddata.obj
 0003:000118d8       _KdProcessorState          8004c618     kd:kddata.obj
 0003:00011bf8       _KdDbgErrorCount           8004c938     kd:ixkdcom.obj
 0004:00000000       _EEPROMShadowIsValid       8004c940     ex:settings.obj
 0004:00000008       _EEPROMShadow              8004c948     ex:settings.obj
 0004:00000108       _HalpTrayEjectRequiresReboot 8004ca48     halx:smbussci.obj
 0004:0000010c       _HalBootSMCVideoMode       8004ca4c     halx:smbussci.obj
 0004:00000110       _HalpStallScaleFactor      8004ca50     halx:ixstall.obj
 0004:00000118       _ExpDisableDebugMonitor    8004ca58     init:init.obj
 0004:00000120       _XboxCERTKey               8004ca60     init:init.obj
 0004:00000130       _XboxHDKey                 8004ca70     init:init.obj
 0004:00000140       _XboxAlternateSignatureKeys 8004ca80     init:init.obj
 0004:00000240       _XboxSignatureKey          8004cb80     init:init.obj
 0004:00000250       _XboxLANKey                8004cb90     init:init.obj
 0004:00000260       _XboxBootFlags             8004cba0     init:init.obj
 0004:00000268       _XboxEEPROMKey             8004cba8     init:init.obj
 0004:00000278       _LaunchDataPage            8004cbb8     init:init.obj
 0004:0000027c       _XboxGameRegion            8004cbbc     init:init.obj
 0004:00000280       _KiNormalTSS               8004cbc0     ke:newsysbg.obj
 0004:000002e8       _KiDoubleFaultTSS          8004cc28     ke:newsysbg.obj
 0004:00000350       _KiNMITSS                  8004cc90     ke:newsysbg.obj
 0004:000003b8       _KiGDT                     8004ccf8     ke:newsysbg.obj
 0004:000003f0       _MmTopOfKernelPhysicalAddress 8004cd30     mmcon:mminit.obj
 0004:000003f0       _KiGDTEnd                  8004cd30     ke:newsysbg.obj
 0004:000003f4       _MmNumberOfPhysicalPages   8004cd34     mmcon:pfnsup.obj
 0004:000003f8       _IdexDiskUserAddressableSectors 8004cd38     idexcon:disk.obj
 0004:000003fc       _IdexDiskSecurityUnlocked  8004cd3c     idexcon:disk.obj
 0004:00000400       _HalDiskSerialNumber       8004cd40     idexcon:disk.obj
 0004:00000408       _IdexDiskSerialNumberBuffer 8004cd48     idexcon:disk.obj
 0004:00000420       _HalDiskModelNumber        8004cd60     idexcon:disk.obj
 0004:00000428       _IdexDiskModelNumberBuffer 8004cd68     idexcon:disk.obj
 0004:00000450       _IdexCdRomSpindleSlowdownSectorsRemaining 8004cd90     idexcon:cdrom.obj
 0004:00000454       _IdexCdRomSpindleSlowdownSectorNumber 8004cd94     idexcon:cdrom.obj
 0004:00000458       _IdexCdRomDVDX2Authenticated 8004cd98     idexcon:cdrom.obj
 0004:0000045c       _IdexCdRomCurrentSpindleSpeed 8004cd9c     idexcon:cdrom.obj
 0004:00000460       _PhyInitFlag               8004cda0     phy:phy.obj
 0004:00000464       _XeCdRomMediaTitleID       8004cda4     ldrcon:loader.obj
 0004:00000468       _AvpCurrentMode            8004cda8     av:modeset.obj
 0004:0000046c       _AvpSavedDataAddress       8004cdac     av:modeset.obj
 0005:00000000       _IdexChannelPhysicalRegionDescriptorTable 8004ce00     idexcon:channel.obj
 0006:00000000       _XGraphicsBuildNumber      8004cf20     xgraphics:swizzler.obj
 0006:00000010       _DSoundBuildNumber         8004cf30     bootsnd:bootsnd.obj
 0006:00000020       _Direct3D_SetPushBufferSize@8 8004cf40 f   d3d8ntpr:d3ddev.obj
 0006:00000040       _Direct3D_CreateDevice@24  8004cf60 f   d3d8ntpr:d3ddev.obj
 0006:000000e0       _D3DDevice_SetRenderState_MultiSampleType@4 8004d000 f   d3d8ntpr:state.obj
 0006:00000110       _D3DDevice_SetRenderState_PSTextureModes@4 8004d030 f   d3d8ntpr:state.obj
 0006:00000140       @D3DDevice_SetRenderState_Simple@8 8004d060 f   d3d8ntpr:state.obj
 0006:00000170       @D3DDevice_SetRenderState_Deferred@8 8004d090 f   d3d8ntpr:state.obj
 0006:00000190       _D3DDevice_SetRenderStateNotInline@8 8004d0b0 f   d3d8ntpr:state.obj
 0006:000001f0       @D3DDevice_SetTextureState_Deferred@12 8004d110 f   d3d8ntpr:state.obj
 0006:00000220       _D3DDevice_SetRenderState_EdgeAntiAlias@4 8004d140 f   d3d8ntpr:state.obj
 0006:00000250       _D3DDevice_SetRenderState_ShadowFunc@4 8004d170 f   d3d8ntpr:state.obj
 0006:00000280       _D3DDevice_SetRenderState_FogColor@4 8004d1a0 f   d3d8ntpr:state.obj
 0006:000002d0       _D3DDevice_SetRenderState_CullMode@4 8004d1f0 f   d3d8ntpr:state.obj
 0006:00000340       _D3DDevice_SetRenderState_FrontFace@4 8004d260 f   d3d8ntpr:state.obj
 0006:00000380       _D3DDevice_SetRenderState_NormalizeNormals@4 8004d2a0 f   d3d8ntpr:state.obj
 0006:000003b0       _D3DDevice_SetRenderState_TextureFactor@4 8004d2d0 f   d3d8ntpr:state.obj
 0006:00000400       _D3DDevice_SetRenderState_LineWidth@4 8004d320 f   d3d8ntpr:state.obj
 0006:00000460       _D3DDevice_SetRenderState_Dxt1NoiseEnable@4 8004d380 f   d3d8ntpr:state.obj
 0006:000004e0       _D3DDevice_SetRenderState_ZBias@4 8004d400 f   d3d8ntpr:state.obj
 0006:00000560       _D3DDevice_SetRenderState_LogicOp@4 8004d480 f   d3d8ntpr:state.obj
 0006:000005b0       _D3DDevice_SetRenderState_FillMode@4 8004d4d0 f   d3d8ntpr:state.obj
 0006:000005f0       _D3DDevice_SetRenderState_BackFillMode@4 8004d510 f   d3d8ntpr:state.obj
 0006:00000640       _D3DDevice_SetRenderState_TwoSidedLighting@4 8004d560 f   d3d8ntpr:state.obj
 0006:000006a0       _D3DDevice_SetRenderState_VertexBlend@4 8004d5c0 f   d3d8ntpr:state.obj
 0006:000006e0       _D3DDevice_SetTextureState_TexCoordIndex@8 8004d600 f   d3d8ntpr:state.obj
 0006:000007c0       _D3DDevice_SetTextureState_BumpEnv@12 8004d6e0 f   d3d8ntpr:state.obj
 0006:00000820       _D3DDevice_SetTextureState_BorderColor@8 8004d740 f   d3d8ntpr:state.obj
 0006:00000860       _D3DDevice_SetTextureState_ColorKeyColor@8 8004d780 f   d3d8ntpr:state.obj
 0006:000008a0       _D3DDevice_SetTextureStageStateNotInline@12 8004d7c0 f   d3d8ntpr:state.obj
 0006:00000930       ?CommonSetTextureBumpEnv@D3DK@@YIPAKPAVCDevice@1@PAK@Z 8004d850 f   d3d8ntpr:state.obj
 0006:000009a0       ?CommonSetViewport@D3DK@@YIPAKPAVCDevice@1@PAK@Z 8004d8c0 f   d3d8ntpr:state.obj
 0006:00000b70       ?CommonSetControl0@D3DK@@YIPAKPAVCDevice@1@PAK@Z 8004da90 f   d3d8ntpr:state.obj
 0006:00000bd0       ?CommonSetSurfaceFormat@D3DK@@YIXPAVCDevice@1@@Z 8004daf0 f   d3d8ntpr:state.obj
 0006:00000d20       ?CommonSetDebugRegisters@D3DK@@YIXXZ 8004dc40 f   d3d8ntpr:state.obj
 0006:00000df0       _D3DDevice_SetRenderState_ZEnable@4 8004dd10 f   d3d8ntpr:state.obj
 0006:00000e60       _D3DDevice_SetRenderState_StencilEnable@4 8004dd80 f   d3d8ntpr:state.obj
 0006:00000ee0       _D3DDevice_SetRenderState_StencilFail@4 8004de00 f   d3d8ntpr:state.obj
 0006:00000f50       _D3DDevice_SetRenderState_YuvEnable@4 8004de70 f   d3d8ntpr:state.obj
 0006:00000f80       _D3DDevice_SetRenderState_OcclusionCullEnable@4 8004dea0 f   d3d8ntpr:state.obj
 0006:00000fe0       _D3DDevice_SetRenderState_StencilCullEnable@4 8004df00 f   d3d8ntpr:state.obj
 0006:00001040       _D3DDevice_SetRenderState_RopZCmpAlwaysRead@4 8004df60 f   d3d8ntpr:state.obj
 0006:00001060       _D3DDevice_SetRenderState_RopZRead@4 8004df80 f   d3d8ntpr:state.obj
 0006:00001080       _D3DDevice_SetRenderState_DoNotCullUncompressed@4 8004dfa0 f   d3d8ntpr:state.obj
 0006:000010a0       _D3DDevice_SetRenderState_MultiSampleAntiAlias@4 8004dfc0 f   d3d8ntpr:state.obj
 0006:000010f0       _D3DDevice_SetRenderState_MultiSampleMask@4 8004e010 f   d3d8ntpr:state.obj
 0006:00001140       ?AntiAliasedSetState@D3DK@@YGXPAUAntiAliasedSavedState@1@PAUD3DSurface@@1K@Z 8004e060 f   d3d8ntpr:present.obj
 0006:00001210       ?AntiAliasedSaveState@D3DK@@YGXPAUAntiAliasedSavedState@1@@Z 8004e130 f   d3d8ntpr:present.obj
 0006:000013a0       ?AntiAliasedRestoreState@D3DK@@YGXPAUAntiAliasedSavedState@1@@Z 8004e2c0 f   d3d8ntpr:present.obj
 0006:000014c0       ?AntiAliasedFilterBlt@D3DK@@YGPAKPAKKKPBUtagRECT@@@Z 8004e3e0 f   d3d8ntpr:present.obj
 0006:00001760       ?AntiAliasedCopy@D3DK@@YGXPBUtagRECT@@@Z 8004e680 f   d3d8ntpr:present.obj
 0006:00001940       ?AliasedFlip@D3DK@@YGXXZ   8004e860 f   d3d8ntpr:present.obj
 0006:00001a30       _D3DDevice_Present@16      8004e950 f   d3d8ntpr:present.obj
 0006:00001b10       _D3DDevice_CreateTexture@28 8004ea30 f   d3d8ntpr:d3dbase.obj
 0006:00001b40       _D3DDevice_CreateCubeTexture@24 8004ea60 f   d3d8ntpr:d3dbase.obj
 0006:00001b70       _D3DDevice_CreateRenderTarget@24 8004ea90 f   d3d8ntpr:d3dbase.obj
 0006:00001b90       _D3DDevice_CreateDepthStencilSurface@20 8004eab0 f   d3d8ntpr:d3dbase.obj
 0006:00001ba0       _D3DDevice_SetTransform@8  8004eac0 f   d3d8ntpr:d3dbase.obj
 0006:00001cb0       _D3DDevice_Release@0       8004ebd0 f   d3d8ntpr:d3dbase.obj
 0006:00001cf0       _D3DDevice_BlockUntilVerticalBlank@0 8004ec10 f   d3d8ntpr:d3dbase.obj
 0006:00001d20       ?GetPitch@PixelJar@D3DK@@YGKPAUD3DPixelContainer@@@Z 8004ec40 f i d3d8ntpr:d3dbase.obj
 0006:00001d80       ?GetSlice@PixelJar@D3DK@@YGKPAUD3DPixelContainer@@@Z 8004eca0 f i d3d8ntpr:d3dbase.obj
 0006:00001e00       _D3DDevice_SetRenderTarget@8 8004ed20 f   d3d8ntpr:d3dbase.obj
 0006:00002060       _D3DDevice_GetBackBuffer@12 8004ef80 f   d3d8ntpr:d3dbase.obj
 0006:000020a0       _D3DDevice_CopyRects@20    8004efc0 f   d3d8ntpr:d3dbase.obj
 0006:00002300       _D3DDevice_GetRenderTarget@4 8004f220 f   d3d8ntpr:d3dbase.obj
 0006:00002320       _D3DDevice_GetDepthStencilSurface@4 8004f240 f   d3d8ntpr:d3dbase.obj
 0006:00002350       _D3DDevice_SetViewport@4   8004f270 f   d3d8ntpr:d3dbase.obj
 0006:000024b0       _D3DDevice_SetTexture@8    8004f3d0 f   d3d8ntpr:d3dbase.obj
 0006:00002610       _D3DDevice_SetIndices@8    8004f530 f   d3d8ntpr:d3dbase.obj
 0006:000026a0       _D3DDevice_SetTile@8       8004f5c0 f   d3d8ntpr:d3dbase.obj
 0006:00002760       _D3DDevice_SetScissors@12  8004f680 f   d3d8ntpr:d3dbase.obj
 0006:000028f0       _D3DDevice_PersistDisplay@0 8004f810 f   d3d8ntpr:d3dbase.obj
 0006:00002a10       _D3DDevice_CreateIndexBuffer@20 8004f930 f   d3d8ntpr:buffer.obj
 0006:00002a50       _D3DDevice_CreateVertexBuffer@20 8004f970 f   d3d8ntpr:buffer.obj
 0006:00002ab0       _D3DVertexBuffer_Lock@20   8004f9d0 f   d3d8ntpr:buffer.obj
 0006:00002b00       _D3DDevice_DrawVertices@12 8004fa20 f   d3d8ntpr:drawprim.obj
 0006:00002ba0       _D3DDevice_DrawIndexedVertices@12 8004fac0 f   d3d8ntpr:drawprim.obj
 0006:00002e10       _D3DDevice_SetVertexData4f@20 8004fd30 f   d3d8ntpr:drawprim.obj
 0006:00002e70       _D3DDevice_Begin@4         8004fd90 f   d3d8ntpr:drawprim.obj
 0006:00002eb0       _D3DDevice_End@0           8004fdd0 f   d3d8ntpr:drawprim.obj
 0006:00002f00       ?InitializeVertexShaderFromFvf@D3DK@@YGXPAUVertexShader@1@K@Z 8004fe20 f   d3d8ntpr:vshader.obj
 0006:00003030       ?ShadowVertexShaderState@D3DK@@YGXPAUVertexShader@1@K@Z 8004ff50 f   d3d8ntpr:vshader.obj
 0006:000030f0       ?ParseProgram@D3DK@@YGPAKPAKPBKK@Z 80050010 f   d3d8ntpr:vshader.obj
 0006:00003160       ?ParseDeclarationStream@D3DK@@YGXPAUVertexShader@1@PBKH@Z 80050080 f   d3d8ntpr:vshader.obj
 0006:00003320       ?ParseDeclarationConstants@D3DK@@YGKPBKPAK@Z 80050240 f   d3d8ntpr:vshader.obj
 0006:00003420       _D3DDevice_CreateVertexShader@16 80050340 f   d3d8ntpr:vshader.obj
 0006:00003560       _D3DDevice_SetStreamSource@12 80050480 f   d3d8ntpr:vshader.obj
 0006:000035f0       _D3DDevice_LoadVertexShader@8 80050510 f   d3d8ntpr:vshader.obj
 0006:00003650       _D3DDevice_SelectVertexShader@8 80050570 f   d3d8ntpr:vshader.obj
 0006:000036c0       _D3DDevice_SetShaderConstantMode@4 800505e0 f   d3d8ntpr:vshader.obj
 0006:000037c0       ?RestoreVertexShaders@D3DK@@YGXPBKK@Z 800506e0 f   d3d8ntpr:vshader.obj
 0006:00003800       _D3DDevice_DeleteVertexShader@4 80050720 f   d3d8ntpr:vshader.obj
 0006:00003820       ?CommonSetPassthroughProgram@D3DK@@YIXPAVCDevice@1@@Z 80050740 f   d3d8ntpr:vshader.obj
 0006:00003920       _D3DDevice_SetVertexShader@4 80050840 f   d3d8ntpr:vshader.obj
 0006:00003a00       _D3DDevice_SetVertexShaderConstant@12 80050920 f   d3d8ntpr:vshader.obj
 0006:00003aa0       _D3DTexture_GetLevelDesc@12 800509c0 f   d3d8ntpr:texture.obj
 0006:00003ab0       _D3DTexture_GetSurfaceLevel@12 800509d0 f   d3d8ntpr:texture.obj
 0006:00003b00       _D3DTexture_LockRect@20    80050a20 f   d3d8ntpr:texture.obj
 0006:00003b30       _D3DCubeTexture_GetCubeMapSurface@16 80050a50 f   d3d8ntpr:texture.obj
 0006:00003b90       ?CreateTexture@D3DK@@YGJKKKKKW4_D3DFORMAT@@_N1PAPAUD3DBaseTexture@@@Z 80050ab0 f   d3d8ntpr:texture.obj
 0006:00003c50       _Direct3DCreate8@4         80050b70 f   d3d8ntpr:enum.obj
 0006:00003c60       ?CleanPrivateData@D3DK@@YGXPAX@Z 80050b80 f   d3d8ntpr:resource.obj
 0006:00003cb0       _D3DResource_GetType@4     80050bd0 f   d3d8ntpr:resource.obj
 0006:00003d60       ?GetDataFromResource@D3DK@@YGPAEPAUD3DResource@@@Z 80050c80 f   d3d8ntpr:resource.obj
 0006:00003d70       ?DestroyResource@D3DK@@YGXPAUD3DResource@@@Z 80050c90 f   d3d8ntpr:resource.obj
 0006:00003e10       ?IsResourceSetInDevice@D3DK@@YGHPAUD3DResource@@@Z 80050d30 f   d3d8ntpr:resource.obj
 0006:00003e50       ?InternalAddRef@D3DK@@YGXPAUD3DResource@@@Z 80050d70 f   d3d8ntpr:resource.obj
 0006:00003e90       _D3DResource_AddRef@4      80050db0 f   d3d8ntpr:resource.obj
 0006:00003ed0       _D3DResource_Release@4     80050df0 f   d3d8ntpr:resource.obj
 0006:00003f20       ?InternalReleaseSurface@D3DK@@YGXPAUD3DResource@@@Z 80050e40 f   d3d8ntpr:resource.obj
 0006:00003f90       _D3DDevice_Clear@24        80050eb0 f   d3d8ntpr:clear.obj
 0006:00004360       _D3DDevice_CreatePixelShader@8 80051280 f   d3d8ntpr:pshader.obj
 0006:000043b0       _D3DDevice_DeletePixelShader@4 800512d0 f   d3d8ntpr:pshader.obj
 0006:000043d0       _D3DDevice_SetPixelShader@4 800512f0 f   d3d8ntpr:pshader.obj
 0006:00004590       _D3DDevice_SetPixelShaderConstant@12 800514b0 f   d3d8ntpr:pshader.obj
 0006:00004820       _D3DSurface_LockRect@16    80051740 f   d3d8ntpr:surface.obj
 0006:00004840       ?CreateSurfaceOfTexture@D3DK@@YGJKKPAUD3DBaseTexture@@PAXPAPAUD3DSurface@@@Z 80051760 f   d3d8ntpr:surface.obj
 0006:000048a0       ?InitializeSurface@D3DK@@YGXPAUD3DSurface@@KKPAX@Z 800517c0 f   d3d8ntpr:surface.obj
 0006:000048d0       ?CreateStandAloneSurface@D3DK@@YGJKKW4_D3DFORMAT@@_NPAPAUD3DSurface@@@Z 800517f0 f   d3d8ntpr:surface.obj
 0006:00004970       ?CreateSurfaceWithContiguousHeader@D3DK@@YGJKKW4_D3DFORMAT@@PAPAUD3DSurface@@@Z 80051890 f   d3d8ntpr:surface.obj
 0006:00004a00       ?InitializeKelvin@D3DK@@YGXXZ 80051920 f   d3d8ntpr:dxgcreate.obj
 0006:00004af0       ?InitializeHardware@D3DK@@YGXXZ 80051a10 f   d3d8ntpr:dxgcreate.obj
 0006:00004b80       ?InitializeD3dState@D3DK@@YGXXZ 80051aa0 f   d3d8ntpr:dxgcreate.obj
 0006:00004c40       ?FreeFrameBuffers@CDevice@D3DK@@QAEXXZ 80051b60 f   d3d8ntpr:dxgcreate.obj
 0006:00004d40       ?InitializeFrameBuffers@CDevice@D3DK@@QAEJPAU_D3DPRESENT_PARAMETERS_@@@Z 80051c60 f   d3d8ntpr:dxgcreate.obj
 0006:00005100       ?Init@CDevice@D3DK@@QAEJPAU_D3DPRESENT_PARAMETERS_@@@Z 80052020 f   d3d8ntpr:dxgcreate.obj
 0006:000055e0       ?UnInit@CDevice@D3DK@@QAEXXZ 80052500 f   d3d8ntpr:dxgcreate.obj
 0006:00005780       ?BusyLoop@D3DK@@YGXXZ      800526a0 f   d3d8ntpr:pusher.obj
 0006:000057a0       ?InitializePushBuffer@CDevice@D3DK@@QAEXXZ 800526c0 f   d3d8ntpr:pusher.obj
 0006:000057f0       ?DumpMatrixTransposed@D3DK@@YGXPAKKPBU_D3DMATRIX@@@Z 80052710 f   d3d8ntpr:pusher.obj
 0006:00005860       ?GpuGet@CDevice@D3DK@@QAEPAKXZ 80052780 f i d3d8ntpr:pusher.obj
 0006:00005890       ?ComputeGap@D3DK@@YIKPAVCDevice@1@PAUFence@1@@Z 800527b0 f   d3d8ntpr:pusher.obj
 0006:00005900       ?FindFence@D3DK@@YGPAUFence@1@K@Z 80052820 f   d3d8ntpr:pusher.obj
 0006:00005980       ?FlushWCCache@D3DK@@YGXXZ  800528a0 f   d3d8ntpr:pusher.obj
 0006:000059b0       ?KickOff@CDevice@D3DK@@QAEXXZ 800528d0 f   d3d8ntpr:pusher.obj
 0006:00005a60       ?SetFence@D3DK@@YGKK@Z     80052980 f   d3d8ntpr:pusher.obj
 0006:00005b00       ?BlockOnTime@D3DK@@YGXKH@Z 80052a20 f   d3d8ntpr:pusher.obj
 0006:00005bf0       ?MakeSpace@CDevice@D3DK@@QAEPAKXZ 80052b10 f   d3d8ntpr:pusher.obj
 0006:00005de0       ?KickOffAndWaitForIdle@D3DK@@YGXXZ 80052d00 f   d3d8ntpr:pusher.obj
 0006:00005e00       ?BlockOnResource@D3DK@@YGXPAUD3DResource@@@Z 80052d20 f   d3d8ntpr:pusher.obj
 0006:00005e90       _XMETAL_StartPush@4        80052db0 f   d3d8ntpr:pusher.obj
 0006:00005eb0       _XMETAL_StartPushCount@8   80052dd0 f   d3d8ntpr:pusher.obj
 0006:00005ee0       ?FloatToLong@D3DK@@YGJM@Z  80052e00 f   d3d8ntpr:floatmath.obj
 0006:00005ef0       ?Exp@D3DK@@YGMM@Z          80052e10 f   d3d8ntpr:floatmath.obj
 0006:00005f50       ?Log@D3DK@@YGMM@Z          80052e70 f   d3d8ntpr:floatmath.obj
 0006:00005f60       ?Log2@D3DK@@YIKK@Z         80052e80 f   d3d8ntpr:pixeljar.obj
 0006:00005f70       ?MapToLinearD3DFORMAT@D3DK@@YG?AW4_D3DFORMAT@@W42@@Z 80052e90 f   d3d8ntpr:pixeljar.obj
 0006:00006030       ?IsCompressedD3DFORMAT@D3DK@@YG_NK@Z 80052f50 f   d3d8ntpr:pixeljar.obj
 0006:00006050       ?VideoBitsPerPixelOfD3DFORMAT@D3DK@@YGKK@Z 80052f70 f   d3d8ntpr:pixeljar.obj
 0006:00006080       ?CalcTilePitch@D3DK@@YGKKW4_D3DFORMAT@@@Z 80052fa0 f   d3d8ntpr:pixeljar.obj
 0006:000060c0       ?GetSurfaceFormat@PixelJar@D3DK@@YGKPAUD3DPixelContainer@@0@Z 80052fe0 f   d3d8ntpr:pixeljar.obj
 0006:00006200       ?GetDepthBufferScale@PixelJar@D3DK@@YGXPAUD3DPixelContainer@@PAM@Z 80053120 f   d3d8ntpr:pixeljar.obj
 0006:00006270       ?GetSize@PixelJar@D3DK@@YGXPAUD3DPixelContainer@@KPAK1111@Z 80053190 f   d3d8ntpr:pixeljar.obj
 0006:000063c0       ?Get2DSurfaceDesc@PixelJar@D3DK@@YGXPAUD3DPixelContainer@@IPAU_D3DSURFACE_DESC@@@Z 800532e0 f   d3d8ntpr:pixeljar.obj
 0006:00006480       ?FindSurfaceWithinTexture@PixelJar@D3DK@@YGXPAUD3DPixelContainer@@W4_D3DCUBEMAP_FACES@@IPAPAEPAK333@Z 800533a0 f   d3d8ntpr:pixeljar.obj
 0006:000066b0       ?Lock2DSurface@PixelJar@D3DK@@YGXPAUD3DPixelContainer@@W4_D3DCUBEMAP_FACES@@IPAU_D3DLOCKED_RECT@@PBUtagRECT@@K@Z 800535d0 f   d3d8ntpr:pixeljar.obj
 0006:00006750       ?EncodeFormat@PixelJar@D3DK@@YGKKKKKW4_D3DFORMAT@@K_N11PAK2@Z 80053670 f   d3d8ntpr:pixeljar.obj
 0006:00006960       ?GetColorMaterial@D3DK@@YGKXZ 80053880 f   d3d8ntpr:lazy.obj
 0006:00006a00       ?UpdateProjectionViewportTransform@D3DK@@YGXXZ 80053920 f   d3d8ntpr:lazy.obj
 0006:00006b50       ?LazySetPointParams@D3DK@@YGXPAVCDevice@1@@Z 80053a70 f   d3d8ntpr:lazy.obj
 0006:00006cc0       ?LazySetShaderStageProgram@D3DK@@YGXPAVCDevice@1@@Z 80053be0 f   d3d8ntpr:lazy.obj
 0006:00006e40       ?LazySetCombiners@D3DK@@YGXPAVCDevice@1@@Z 80053d60 f   d3d8ntpr:lazy.obj
 0006:00007040       ?LazySetTextureState@D3DK@@YGXPAVCDevice@1@@Z 80053f60 f   d3d8ntpr:lazy.obj
 0006:00007240       ?LazySetSpecFogCombiner@D3DK@@YGXPAVCDevice@1@@Z 80054160 f   d3d8ntpr:lazy.obj
 0006:00007420       ?LazySetTextureTransform@D3DK@@YGXPAVCDevice@1@@Z 80054340 f   d3d8ntpr:lazy.obj
 0006:000077d0       ?SetLightColors@D3DK@@YGPAKPAKPBULight@1@KK@Z 800546f0 f   d3d8ntpr:lazy.obj
 0006:000078d0       ?SetSceneAmbientAndMaterialEmission@D3DK@@YGPAKPAKK@Z 800547f0 f   d3d8ntpr:lazy.obj
 0006:00007a70       ?SetSpecularParameters@D3DK@@YGPAKPAK@Z 80054990 f   d3d8ntpr:lazy.obj
 0006:00007bb0       ?LazySetLights@D3DK@@YGXPAVCDevice@1@@Z 80054ad0 f   d3d8ntpr:lazy.obj
 0006:00007ed0       ?LazySetTransform@D3DK@@YGXPAVCDevice@1@@Z 80054df0 f   d3d8ntpr:lazy.obj
 0006:000080c0       ?SetState@D3DK@@YGXXZ      80054fe0 f   d3d8ntpr:lazy.obj
 0006:00008130       ?SetStateVB@CDevice@D3DK@@QAEXK@Z 80055050 f   d3d8ntpr:lazy.obj
 0006:00008420       ?DacProgramVideoStart@CMiniport@D3DK@@QAEXK@Z 80055340 f   d3d8ntpr:mpdac.obj
 0006:000084a4       ?DacProgramGammaRamp@CMiniport@D3DK@@QAEXPAU_D3DGAMMARAMP@@@Z 800553c4 f   d3d8ntpr:mpdac.obj
 0006:000084f0       ?ScaleVector3@D3DK@@YGXPAU_D3DVECTOR@@PBU2@M@Z 80055410 f   d3d8ntpr:math.obj
 0006:00008520       ?AddVectors3@D3DK@@YGXPAU_D3DVECTOR@@PBU2@1@Z 80055440 f   d3d8ntpr:math.obj
 0006:00008550       ?XformBy4x3@D3DK@@YGXPAU_D3DVECTOR@@PBU2@MPBU_D3DMATRIX@@@Z 80055470 f   d3d8ntpr:math.obj
 0006:000085b0       ?MatrixProduct4x4@D3DK@@YGXPAU_D3DMATRIX@@PBU2@1@Z 800554d0 f   d3d8ntpr:math.obj
 0006:000086b0       ?Explut@D3DK@@YGXMPAM0@Z   800555d0 f   d3d8ntpr:math.obj
 0006:00008790       ?JBInvSqrt@D3DK@@YGMM@Z    800556b0 f   d3d8ntpr:math.obj
 0006:00008800       ?NormalizeVector3@D3DK@@YGXPAU_D3DVECTOR@@@Z 80055720 f   d3d8ntpr:math.obj
 0006:00008850       ?Inverse4x4@D3DK@@YGHPAU_D3DMATRIX@@PBU2@H@Z 80055770 f   d3d8ntpr:math.obj
 0006:00008db0       ?GetDisplayCapabilities@CMiniport@D3DK@@SGKXZ 80055cd0 f   d3d8ntpr:mpmode.obj
 0006:00008dce       ?GetTableForCurrentAvInfo@D3DK@@YGPBUDISPLAYMODE@1@XZ 80055cee f   d3d8ntpr:mpmode.obj
 0006:00008e47       ?SetVideoMode@CMiniport@D3DK@@QAEXKKKKW4_D3DFORMAT@@KK@Z 80055d67 f   d3d8ntpr:mpmode.obj
 0006:00008fd0       ?IsFlipPending@CMiniport@D3DK@@QAEHXZ 80055ef0 f   d3d8ntpr:mpintr.obj
 0006:00008fe0       ?Isr@CMiniport@D3DK@@SGEPAU_KINTERRUPT@@PAX@Z 80055f00 f   d3d8ntpr:mpintr.obj
 0006:000090a0       ?VBlank@CMiniport@D3DK@@AAEKXZ 80055fc0 f   d3d8ntpr:mpintr.obj
 0006:000091e0       ?FixupPushBuffer@CMiniport@D3DK@@QAEXPAUPUSHBUFFERFIXUPINFO@12@K@Z 80056100 f   d3d8ntpr:mpintr.obj
 0006:00009260       ?SoftwareMethod@CMiniport@D3DK@@AAEXKK@Z 80056180 f   d3d8ntpr:mpintr.obj
 0006:00009430       ?ShutdownNotification@CMiniport@D3DK@@SGXPAU_HAL_SHUTDOWN_REGISTRATION@@@Z 80056350 f   d3d8ntpr:mpintr.obj
 0006:00009460       ?ServiceGrInterrupt@CMiniport@D3DK@@AAEKXZ 80056380 f   d3d8ntpr:mpintr.obj
 0006:000095d0       ?ServiceFifoInterrupt@CMiniport@D3DK@@AAEKXZ 800564f0 f   d3d8ntpr:mpintr.obj
 0006:00009760       ?Dpc@CMiniport@D3DK@@SGXPAU_KDPC@@PAX11@Z 80056680 f   d3d8ntpr:mpintr.obj
 0006:00009810       ?GPUCopyVideoRectangle@D3DK@@YGXKKKKKKPAUtagRECT@@PAUtagPOINT@@@Z 80056730 f   d3d8ntpr:memory.obj
 0006:00009910       ?ReserveInstMem@CMiniport@D3DK@@AAEKK@Z 80056830 f   d3d8ntpr:mpcore.obj
 0006:00009923       ?InitGammaRamp@CMiniport@D3DK@@AAEXK@Z 80056843 f   d3d8ntpr:mpcore.obj
 0006:00009963       ?InitDMAChannel@CMiniport@D3DK@@QAEHKPAUOBJECTINFO@12@0KPAPAX@Z 80056883 f   d3d8ntpr:mpcore.obj
 0006:000099c6       ?BindToChannel@CMiniport@D3DK@@QAEHPAUOBJECTINFO@12@@Z 800568e6 f   d3d8ntpr:mpcore.obj
 0006:000099fa       ?MapRegisters@CMiniport@D3DK@@AAEHXZ 8005691a f   d3d8ntpr:mpcore.obj
 0006:00009a25       ?GetGeneralInfo@CMiniport@D3DK@@AAEHXZ 80056945 f   d3d8ntpr:mpcore.obj
 0006:00009a66       ?InitEngines@CMiniport@D3DK@@AAEHXZ 80056986 f   d3d8ntpr:mpcore.obj
 0006:00009b70       ?LoadEngines@CMiniport@D3DK@@AAEHXZ 80056a90 f   d3d8ntpr:mpcore.obj
 0006:00009ca9       ?GetAddressInfo@CMiniport@D3DK@@AAEXPAXPAPAXPAKH@Z 80056bc9 f   d3d8ntpr:mpcore.obj
 0006:00009d03       ?CreateCtxDmaObject@CMiniport@D3DK@@QAEHKKPAXKPAUOBJECTINFO@12@@Z 80056c23 f   d3d8ntpr:mpcore.obj
 0006:00009dd8       ?CreateGrObject@CMiniport@D3DK@@QAEHKKPAUOBJECTINFO@12@@Z 80056cf8 f   d3d8ntpr:mpcore.obj
 0006:00009e73       ?TilingUpdateIdle@CMiniport@D3DK@@QAEXPAK@Z 80056d93 f   d3d8ntpr:mpcore.obj
 0006:00009ede       ?InitHardware@CMiniport@D3DK@@QAEHXZ 80056dfe f   d3d8ntpr:mpcore.obj
 0006:0000a011       ?CreateTile@CMiniport@D3DK@@QAEHKKKKKKK@Z 80056f31 f   d3d8ntpr:mpcore.obj
 0006:0000a1ff       ?DestroyTile@CMiniport@D3DK@@QAEHKK@Z 8005711f f   d3d8ntpr:mpcore.obj
 0006:0000a2c1       ?ShutdownEngines@CMiniport@D3DK@@QAEXXZ 800571e1 f   d3d8ntpr:mpcore.obj
 0006:0000a470       ?nvKelvinACSelectAlphaInput@D3DK@@YGJPAVCDevice@1@W4_kelvinCombinerInput@1@KKKHH@Z 80057390 f   d3d8ntpr:combiner.obj
 0006:0000a920       ?nvConstructKelvinOutputAlphaCombiners@D3DK@@YGXPAVCDevice@1@HKKHKH@Z 80057840 f   d3d8ntpr:combiner.obj
 0006:0000a9d0       ?ConstructAlphaCombiners@D3DK@@YGXPAVCDevice@1@KKH@Z 800578f0 f   d3d8ntpr:combiner.obj
 0006:0000ac60       ?nvKelvinCCSelectColorInput@D3DK@@YGJPAVCDevice@1@W4_kelvinCombinerInput@1@KKKHHH@Z 80057b80 f   d3d8ntpr:combiner.obj
 0006:0000b280       ?nvConstructKelvinOutputColorCombiners@D3DK@@YGXPAVCDevice@1@HKHKHHH@Z 800581a0 f   d3d8ntpr:combiner.obj
 0006:0000b370       ?ConstructColorCombiners@D3DK@@YGHPAVCDevice@1@KK@Z 80058290 f   d3d8ntpr:combiner.obj
 0006:0000b660       ?HalMcControlInit@CMiniport@D3DK@@AAEXXZ 80058580 f   d3d8ntpr:mphal.obj
 0006:0000b7c7       ?HalFbControlInit@CMiniport@D3DK@@AAEXXZ 800586e7 f   d3d8ntpr:mphal.obj
 0006:0000b8c1       ?HalDacControlInit@CMiniport@D3DK@@AAEXXZ 800587e1 f   d3d8ntpr:mphal.obj
 0006:0000b990       ?HalVideoControlInit@CMiniport@D3DK@@AAEXXZ 800588b0 f   d3d8ntpr:mphal.obj
 0006:0000b9c6       ?HalGrControlInit@CMiniport@D3DK@@AAEXXZ 800588e6 f   d3d8ntpr:mphal.obj
 0006:0000b9f6       ?HalFifoControlInit@CMiniport@D3DK@@AAEXXZ 80058916 f   d3d8ntpr:mphal.obj
 0006:0000ba67       ?HalGrIdle@CMiniport@D3DK@@AAEXXZ 80058987 f   d3d8ntpr:mphal.obj
 0006:0000baa6       ?HalGrUnloadChannelContext@CMiniport@D3DK@@AAEXK@Z 800589c6 f   d3d8ntpr:mphal.obj
 0006:0000badf       ?HalFifoContextSwitch@CMiniport@D3DK@@AAEXK@Z 800589ff f   d3d8ntpr:mphal.obj
 0006:0000bcdc       ?HalDacLoad@CMiniport@D3DK@@AAEXXZ 80058bfc f   d3d8ntpr:mphal.obj
 0006:0000bcee       ?HalFifoAllocDMA@CMiniport@D3DK@@AAEXKKKPAUOBJECTINFO@12@@Z 80058c0e f   d3d8ntpr:mphal.obj
 0006:0000be7b       ?HalFifoHashAdd@CMiniport@D3DK@@AAEXKKKKK@Z 80058d9b f   d3d8ntpr:mphal.obj
 0006:0000beb4       ?HalGrInitObjectContext@CMiniport@D3DK@@AAEXKK@Z 80058dd4 f   d3d8ntpr:mphal.obj
 0006:0000bf16       ?HalGrInit3d@CMiniport@D3DK@@AAEXXZ 80058e36 f   d3d8ntpr:mphal.obj
 0006:0000c8f5       ?HalGrLoadChannelContext@CMiniport@D3DK@@AAEXK@Z 80059815 f   d3d8ntpr:mphal.obj
 0006:0000ca18       ?HalFifoControlLoad@CMiniport@D3DK@@AAEXXZ 80059938 f   d3d8ntpr:mphal.obj
 0006:0000ca99       ?HalGrControlLoad@CMiniport@D3DK@@AAEXXZ 800599b9 f   d3d8ntpr:mphal.obj
 0006:0000cd30       ?g_TextureFormat@D3DK@@3QBEB 80059c50     d3d8ntpr:d3ddev.obj
 0006:0000cd7c       ?g_LODBias2x@D3DK@@3QBMB   80059c9c     d3d8ntpr:state.obj
 0006:0000cd90       ?g_ComplexRenderStateFunctionTable@D3DK@@3QBQ6GXK@ZB 80059cb0     d3d8ntpr:state.obj
 0006:0000ce00       ?g_DirtyFromRenderState@D3DK@@3QBKB 80059d20     d3d8ntpr:state.obj
 0006:0000ce90       ?g_AntiAliasedTextureStates@D3DK@@3QBKB 80059db0     d3d8ntpr:present.obj
 0006:0000cee8       ?g_AntiAliasedRenderStates@D3DK@@3QBKB 80059e08     d3d8ntpr:present.obj
 0006:0000cf78       ?g_TilePitches@D3DK@@3QBKB 80059e98     d3d8ntpr:d3dbase.obj
 0006:0000cfb8       ?g_TransformDirtyTable@D3DK@@3QBKB 80059ed8     d3d8ntpr:d3dbase.obj
 0006:0000cfe0       ?g_IdentityMatrix@D3DK@@3U_D3DMATRIX@@B 80059f00     d3d8ntpr:vshader.obj
 0006:0000d020       ?g_UnitsOfElement@D3DK@@3QBEB 80059f40     d3d8ntpr:vshader.obj
 0006:0000d028       ?g_BytesPerUnit@D3DK@@3QBEB 80059f48     d3d8ntpr:vshader.obj
 0006:0000d034       ?g_FixedFunctionPipelineConstants@D3DK@@3QBKB 80059f54     d3d8ntpr:vshader.obj
 0006:0000d068       ?g_PassthruProgramWFog@D3DK@@3QBKB 80059f88     d3d8ntpr:vshader.obj
 0006:0000d128       ?g_PassthruProgramZFog@D3DK@@3QBKB 8005a048     d3d8ntpr:vshader.obj
 0006:0000d1d8       ?g_PassthruProgramSpecularFog@D3DK@@3QBKB 8005a0f8     d3d8ntpr:vshader.obj
 0006:0000d298       ?g_TextureCount@D3DK@@3QBKB 8005a1b8     d3d8ntpr:vshader.obj
 0006:0000d2a8       ?g_MinFilter@D3DK@@3QAY02$$CBKA 8005a1c8     d3d8ntpr:precomp.obj
 0006:0000d2c0       ?g_InitialTextureStates@D3DK@@3QBEB 8005a1e0     d3d8ntpr:dxgcreate.obj
 0006:0000d2e0       ?g_InitialRenderStates@D3DK@@3QBKB 8005a200     d3d8ntpr:dxgcreate.obj
 0006:0000d444       ?g_EyeDirection@D3DK@@3U_D3DVECTOR@@B 8005a364     d3d8ntpr:lazy.obj
 0006:0000d458       ?g_Mar@D3DK@@3QBMB         8005a378     d3d8ntpr:math.obj
 0006:0000d4d8       ?g_Lar@D3DK@@3QBMB         8005a3f8     d3d8ntpr:math.obj
 0006:0000d558       ?g_DisplayModes@D3DK@@3QBUDISPLAYMODE@1@B 8005a478     d3d8ntpr:mpmode.obj
 0006:0000de50       ??_C@_0GO@FKGMJKMG@MP?3?5GRAPHICS?5HARDWARE?5ERROR?6MP?3?5@ 8005ad70     d3d8ntpr:mpintr.obj
 0006:0000dec0       ??_C@_0L@ONOOIALJ@HW?5GET?$DN?$CFx?6?$AA@ 8005ade0     d3d8ntpr:mpintr.obj
 0006:0000decc       ??_C@_0L@PMEOCEEF@HW?5PUT?$DN?$CFx?6?$AA@ 8005adec     d3d8ntpr:mpintr.obj
 0006:0000ded8       ??_C@_0L@HBJJGHMK@SW?5PUT?$DN?$CFx?6?$AA@ 8005adf8     d3d8ntpr:mpintr.obj
 0006:0000def0       ?g_DirtyFromTextureState@D3DK@@3PAKA 8005ae10     d3d8ntpr:state.obj
 0006:0000df60       ?g_Device@D3DK@@3VCDevice@1@A 8005ae80     d3d8ntpr:d3ddev.obj
 0006:00010af0       ?g_pDevice@D3DK@@3PAVCDevice@1@A 8005da10     d3d8ntpr:d3ddev.obj
 0006:00010af4       _g_pPushBuffer             8005da14     d3d8ntpr:d3ddev.obj
 0006:00010af8       ?g_FlipAddress@D3DK@@3KA   8005da18     d3d8ntpr:present.obj
 0006:00010afc       ?g_CurrentPrimitiveType@D3DK@@3HA 8005da1c     d3d8ntpr:drawprim.obj
 0006:00010b00       ?g_Stream@D3DK@@3PAUStream@1@A 8005da20     d3d8ntpr:vshader.obj
 0006:00010bc0       ?g_FvfVertexShader@D3DK@@3UVertexShader@1@A 8005dae0     d3d8ntpr:vshader.obj
 0006:00010d30       _D3D__AvInfo               8005dc50     d3d8ntpr:globals.obj
 0006:00010d38       _D3D__TestTime             8005dc58     d3d8ntpr:globals.obj
 0006:00010d40       _D3D__PushLimit            8005dc60     d3d8ntpr:globals.obj
 0006:00010d44       _D3D__PushBase             8005dc64     d3d8ntpr:globals.obj
 0006:00010d48       _D3D__GpuTime              8005dc68     d3d8ntpr:globals.obj
 0006:00010d4c       _D3D__GpuReg               8005dc6c     d3d8ntpr:globals.obj
 0006:00010d50       _D3D__GpuPut               8005dc70     d3d8ntpr:globals.obj
 0006:00010d54       _D3D__GpuGet               8005dc74     d3d8ntpr:globals.obj
 0006:00010d58       _D3D__NullHardware         8005dc78     d3d8ntpr:globals.obj
 0006:00010d5c       _D3D__IndexData            8005dc7c     d3d8ntpr:globals.obj
 0006:00010d60       _D3D__TextureState         8005dc80     d3d8ntpr:globals.obj
 0006:00010f60       _D3D__RenderState          8005de80     d3d8ntpr:globals.obj
 0006:000111a4       ?m_PushSegmentSize@CDevice@D3DK@@2KA 8005e0c4     d3d8ntpr:dxgcreate.obj
 0006:000111a8       ?m_PushBufferSize@CDevice@D3DK@@2KA 8005e0c8     d3d8ntpr:dxgcreate.obj
 0006:000111ac       ?g_VideoOffset@D3DK@@3KA   8005e0cc     d3d8ntpr:mpintr.obj
 0006:000111b0       ?g_pVideoMemoryBase@D3DK@@3PAEA 8005e0d0     d3d8ntpr:memory.obj
 0006:000111b4       ?PoolAlloc@@YGPAXIPBX@Z    8005e0d4 f i bootsnd:bootsnd.obj
 0006:0001120d       ?PoolFree@@YGXPAPAX@Z      8005e12d f i bootsnd:bootsnd.obj
 0006:00011232       ?PhysicalAlloc@@YGPAXIKKPBX@Z 8005e152 f i bootsnd:bootsnd.obj
 0006:00011291       ?PhysicalFree@@YGXPAPAX@Z  8005e1b1 f i bootsnd:bootsnd.obj
 0006:000112b6       ?DirectSoundEnterCriticalSection@@YGHXZ 8005e1d6 f i bootsnd:bootsnd.obj
 0006:000112d0       ?RemoveEntryList@@YGXPAU_LIST_ENTRY@@@Z 8005e1f0 f i bootsnd:bootsnd.obj
 0006:000112ea       ?Raise@CIrql@@QAEXXZ       8005e20a f i bootsnd:bootsnd.obj
 0006:00011307       ?Save@CFpState@@QAEXXZ     8005e227 f i bootsnd:bootsnd.obj
 0006:0001132a       ?Restore@CFpState@@QAEXXZ  8005e24a f i bootsnd:bootsnd.obj
 0006:00011346       ?GetNotifierStatus@CMcpxCore@@QAEHKH@Z 8005e266 f i bootsnd:bootsnd.obj
 0006:00011375       ?SetNotifierStatus@CMcpxCore@@QAEXKH@Z 8005e295 f i bootsnd:bootsnd.obj
 0006:00011396       ?GetNotifierStatus@CMcpxVoiceClient@@IAEHKH@Z 8005e2b6 f i bootsnd:bootsnd.obj
 0006:000113b4       ?SetNotifierStatus@CMcpxVoiceClient@@IAEXKH@Z 8005e2d4 f i bootsnd:bootsnd.obj
 0006:000113d2       ?BytesToSamples@CMcpxVoiceClient@@IAEKK@Z 8005e2f2 f i bootsnd:bootsnd.obj
 0006:000113f7       ?SamplesToBytes@CMcpxVoiceClient@@IAEKK@Z 8005e317 f i bootsnd:bootsnd.obj
 0006:0001141e       ?GetVoiceCfgFMT@CMcpxVoiceClient@@IAEKK@Z 8005e33e f i bootsnd:bootsnd.obj
 0006:00011433       ?AcquireCodecSemaphore@CAc97Device@@KGHXZ 8005e353 f   bootsnd:bootsnd.obj
 0006:0001145f       ?CodecReady@CAc97Device@@IAEHXZ 8005e37f f   bootsnd:bootsnd.obj
 0006:000114ae       ?SynchronizeAciInterrupt@CAc97Device@@IAEXXZ 8005e3ce f   bootsnd:bootsnd.obj
 0006:000114c2       ?PokeAc97Register@CAc97Device@@KGHW4AC97REGISTER@@G@Z 8005e3e2 f   bootsnd:bootsnd.obj
 0006:000114df       ?PowerUp@CAc97Device@@IAEJXZ 8005e3ff f   bootsnd:bootsnd.obj
 0006:000114f7       ?Pause@CAc97Channel@@QAEXXZ 8005e417 f   bootsnd:bootsnd.obj
 0006:00011528       ?SetPrdIndeces@CAc97Channel@@IAEXEEHH@Z 8005e448 f   bootsnd:bootsnd.obj
 0006:000115b9       ?SetMode@CAc97Channel@@QAEXK@Z 8005e4d9 f   bootsnd:bootsnd.obj
 0006:000115ec       ?SetPosition@CAc97Channel@@IAEXK@Z 8005e50c f   bootsnd:bootsnd.obj
 0006:0001161a       _IDirectSound_Release@4    8005e53a f   bootsnd:bootsnd.obj
 0006:00011630       _IDirectSoundBuffer_Release@4 8005e550 f   bootsnd:bootsnd.obj
 0006:00011646       ?AddRef@CRefCount@@UAGKXZ  8005e566 f   bootsnd:bootsnd.obj
 0006:0001166a       ?Release@CRefCount@@UAGKXZ 8005e58a f   bootsnd:bootsnd.obj
 0006:0001169c       ?SetEffectImageLocations@CDirectSoundSettings@@QAEXPBU_DSEFFECTIMAGELOC@@@Z 8005e5bc f   bootsnd:bootsnd.obj
 0006:000116be       ?SetMixBins@CDirectSoundVoiceSettings@@QAEXK@Z 8005e5de f   bootsnd:bootsnd.obj
 0006:000116e9       ?SetLoopRegion@CDirectSoundBufferSettings@@QAEXKK@Z 8005e609 f   bootsnd:bootsnd.obj
 0006:00011705       ?NotifyPosition@CDirectSoundBuffer@@IAGXKK@Z 8005e625 f   bootsnd:bootsnd.obj
 0006:00011748       ?NotifyStop@CDirectSoundBuffer@@IAGXXZ 8005e668 f   bootsnd:bootsnd.obj
 0006:00011779       _XAudioCalculatePitchFloat@4 8005e699 f   bootsnd:bootsnd.obj
 0006:000117e2       ?MapBuffer@CMcpxBuffer@@IAEXKPAXK@Z 8005e702 f   bootsnd:bootsnd.obj
 0006:00011884       ?UnmapBuffer@CMcpxBuffer@@IAEXXZ 8005e7a4 f   bootsnd:bootsnd.obj
 0006:000118d5       ?GetStatus@CMcpxBuffer@@QAEJPAK@Z 8005e7f5 f   bootsnd:bootsnd.obj
 0006:0001191f       ?AllocateVoices@CMcpxAPU@@QAEJPAVCMcpxVoiceClient@@@Z 8005e83f f   bootsnd:bootsnd.obj
 0006:00011a20       ?FreeVoices@CMcpxAPU@@QAEXPAVCMcpxVoiceClient@@@Z 8005e940 f   bootsnd:bootsnd.obj
 0006:00011ab1       ?ActivateVoice@CMcpxAPU@@QAEXPAVCMcpxVoiceClient@@0K@Z 8005e9d1 f   bootsnd:bootsnd.obj
 0006:00011aff       ?GetAntecedentVoice@CMcpxAPU@@QAEXPAVCMcpxVoiceClient@@PAKPAPAV2@@Z 8005ea1f f   bootsnd:bootsnd.obj
 0006:00011b72       ?SynchronizeWithIsr@CMcpxAPU@@CGEPAX@Z 8005ea92 f   bootsnd:bootsnd.obj
 0006:00011b9e       ?RemoveIdleVoice@CMcpxAPU@@IAEXPAVCMcpxVoiceClient@@@Z 8005eabe f   bootsnd:bootsnd.obj
 0006:00011d8c       ?ScheduleDeferredCommandLow@CMcpxAPU@@IAEHPAUMCPX_DEFERRED_COMMAND@@@Z 8005ecac f   bootsnd:bootsnd.obj
 0006:00011db1       ?RemoveDeferredCommandHigh@CMcpxAPU@@IAEXPAUMCPX_DEFERRED_COMMAND@@@Z 8005ecd1 f   bootsnd:bootsnd.obj
 0006:00011e10       ?RemoveDeferredCommandLow@CMcpxAPU@@IAEXPAUMCPX_DEFERRED_COMMAND@@@Z 8005ed30 f   bootsnd:bootsnd.obj
 0006:00011e2b       ?ServiceDeferredCommandsHigh@CMcpxAPU@@IAEXXZ 8005ed4b f   bootsnd:bootsnd.obj
 0006:00011ead       ?SetHRTFHeadroom@CMcpxAPU@@QAEJK@Z 8005edcd f   bootsnd:bootsnd.obj
 0006:00011ec7       ?SetMixBinHeadroom@CMcpxAPU@@QAEJKK@Z 8005ede7 f   bootsnd:bootsnd.obj
 0006:00011efb       ?ReleaseVoiceResources@CMcpxVoiceClient@@IAEXXZ 8005ee1b f   bootsnd:bootsnd.obj
 0006:00011f32       ?ConvertMixBinValues@CMcpxVoiceClient@@IAEXPAK0@Z 8005ee52 f   bootsnd:bootsnd.obj
 0006:00011ffd       ?ConvertVolumeValues@CMcpxVoiceClient@@IAEXPAUMCPX_VOICE_VOLUME@@@Z 8005ef1d f   bootsnd:bootsnd.obj
 0006:000121f3       ?ConvertPitchValue@CMcpxVoiceClient@@IAEXPAK@Z 8005f113 f   bootsnd:bootsnd.obj
 0006:00012240       ?ReleaseVoice@CMcpxVoiceClient@@IAEXXZ 8005f160 f   bootsnd:bootsnd.obj
 0006:000122ad       ?WaitForVoiceOff@CMcpxVoiceClient@@IAEXXZ 8005f1cd f   bootsnd:bootsnd.obj
 0006:000122bd       ?PauseVoice@CMcpxVoiceClient@@IAEXK@Z 8005f1dd f   bootsnd:bootsnd.obj
 0006:00012364       ?SetENVF@CMcpxVoiceClient@@AAEXPBU_DSENVELOPEDESC@@@Z 8005f284 f   bootsnd:bootsnd.obj
 0006:0001240d       ?SetENVA@CMcpxVoiceClient@@AAEXPBU_DSENVELOPEDESC@@@Z 8005f32d f   bootsnd:bootsnd.obj
 0006:000124a6       ?SetFilter@CMcpxVoiceClient@@QAEJPBU_DSFILTERDESC@@@Z 8005f3c6 f   bootsnd:bootsnd.obj
 0006:00012655       ?DisconnectVoice@CMcpxVoiceClient@@QAEJXZ 8005f575 f   bootsnd:bootsnd.obj
 0006:000127b2       ?GetSSLPosition@CMcpxVoiceClient@@IAEKXZ 8005f6d2 f   bootsnd:bootsnd.obj
 0006:00012833       ?SetupVoiceProcessor@CMcpxCore@@IAEXXZ 8005f753 f   bootsnd:bootsnd.obj
 0006:00012908       ?SetInterruptState@CMcpxCore@@IAEXH@Z 8005f828 f   bootsnd:bootsnd.obj
 0006:00012941       ?SetPrivLockState@CMcpxCore@@IAEXH@Z 8005f861 f   bootsnd:bootsnd.obj
 0006:0001297a       ?SetFrontEndState@CMcpxCore@@IAEXW4MCPX_FE_STATE@@@Z 8005f89a f   bootsnd:bootsnd.obj
 0006:000129d7       ?SetSetupEngineState@CMcpxCore@@IAEXW4MCPX_SE_STATE@@@Z 8005f8f7 f   bootsnd:bootsnd.obj
 0006:00012a3b       ?GetPhysicalMemoryProperties@CMcpxCore@@SGKPAXKPAK1@Z 8005f95b f   bootsnd:bootsnd.obj
 0006:00012ab0       ?MapTransfer@CMcpxCore@@SGKPAPAXPAK1@Z 8005f9d0 f   bootsnd:bootsnd.obj
 0006:00012aed       ?AllocateContext@CMcpxCore@@SGJPAUMCPX_ALLOC_CONTEXT@@KKK@Z 8005fa0d f   bootsnd:bootsnd.obj
 0006:00012b32       ?ResetGlobalCounters@CMcpxCore@@IAEXXZ 8005fa52 f   bootsnd:bootsnd.obj
 0006:00012ba6       ?IdleVoiceProcessor@CMcpxCore@@QAEHH@Z 8005fac6 f   bootsnd:bootsnd.obj
 0006:00012c43       ??0CMcpxDspScratchDma@@QAE@PAVCMcpxCore@@H@Z 8005fb63 f   bootsnd:bootsnd.obj
 0006:00012c63       ??1CMcpxDspScratchDma@@QAE@XZ 8005fb83 f   bootsnd:bootsnd.obj
 0006:00012c85       ?Initialize@CMcpxDspScratchDma@@QAEXK@Z 8005fba5 f   bootsnd:bootsnd.obj
 0006:00012d32       ?Copy@CMcpxDspScratchDma@@QAEXKPAXK@Z 8005fc52 f   bootsnd:bootsnd.obj
 0006:00012d5a       ??0CMcpxGPDspManager@@QAE@PAVCMcpxCore@@@Z 8005fc7a f   bootsnd:bootsnd.obj
 0006:00012d81       ?Initialize@CMcpxGPDspManager@@QAEXXZ 8005fca1 f   bootsnd:bootsnd.obj
 0006:00012dee       _GetFormatSize@8           8005fd0e f   bootsnd:bootsnd.obj
 0006:00012e14       _CopyFormatAlloc@4         8005fd34 f   bootsnd:bootsnd.obj
 0006:00012e76       ?RemoveNode@?$CList@VCDirectSoundVoice@@@@QAEXPAVCDirectSoundVoice@@@Z 8005fd96 f i bootsnd:bootsnd.obj
 0006:00012eb5       ??1?$CHeap@U_SGEHEAPRUNMARKER@@@@UAE@XZ 8005fdd5 f i bootsnd:bootsnd.obj
 0006:00012ec5       ?__Release@@YGXPAPAVCDirectSoundBuffer@@@Z 8005fde5 f i bootsnd:bootsnd.obj
 0006:00012ec5       ?__Release@@YGXPAPAVCMcpxVoiceClient@@@Z 8005fde5 f i bootsnd:bootsnd.obj
 0006:00012ec5       ?__Release@@YGXPAPAVCDirectSound@@@Z 8005fde5 f i bootsnd:bootsnd.obj
 0006:00012ec5       ?__Release@@YGXPAPAVCMcpxAPU@@@Z 8005fde5 f i bootsnd:bootsnd.obj
 0006:00012ec5       ?__Release@@YGXPAPAVCDirectSoundBufferSettings@@@Z 8005fde5 f i bootsnd:bootsnd.obj
 0006:00012ec5       ?__Release@@YGXPAPAVCDirectSoundSettings@@@Z 8005fde5 f i bootsnd:bootsnd.obj
 0006:00012ec5       ?__Release@@YGXPAPAVCDirectSoundVoiceSettings@@@Z 8005fde5 f i bootsnd:bootsnd.obj
 0006:00012ec5       ?__Release@@YGXPAPAVCMcpxBuffer@@@Z 8005fde5 f i bootsnd:bootsnd.obj
 0006:00012edb       ?__AddRef@@YGPAVCDirectSoundVoiceSettings@@PAV1@@Z 8005fdfb f i bootsnd:bootsnd.obj
 0006:00012edb       ?__AddRef@@YGPAVCDirectSoundBuffer@@PAV1@@Z 8005fdfb f i bootsnd:bootsnd.obj
 0006:00012edb       ?__AddRef@@YGPAVCMcpxAPU@@PAV1@@Z 8005fdfb f i bootsnd:bootsnd.obj
 0006:00012edb       ?__AddRef@@YGPAVCDirectSoundBufferSettings@@PAV1@@Z 8005fdfb f i bootsnd:bootsnd.obj
 0006:00012edb       ?__AddRef@@YGPAVCDirectSound@@PAV1@@Z 8005fdfb f i bootsnd:bootsnd.obj
 0006:00012edb       ?__AddRef@@YGPAVCMcpxVoiceClient@@PAV1@@Z 8005fdfb f i bootsnd:bootsnd.obj
 0006:00012edb       ?__AddRef@@YGPAVCDirectSoundSettings@@PAV1@@Z 8005fdfb f i bootsnd:bootsnd.obj
 0006:00012ef0       ?__delete@@YGXPAPAVCMcpxDspImage@@@Z 8005fe10 f i bootsnd:bootsnd.obj
 0006:00012f0f       ??_GCMcpxDspScratchDma@@QAEPAXI@Z 8005fe2f f i bootsnd:bootsnd.obj
 0006:00012f33       ?InsertNode@?$CList@VCDirectSoundVoice@@@@QAEXPAVCDirectSoundVoice@@0@Z 8005fe53 f i bootsnd:bootsnd.obj
 0006:00012f81       ?RemoveNode@?$CList@U_SGEHEAPRUNMARKER@@@@QAEXPAU_SGEHEAPRUNMARKER@@@Z 8005fea1 f i bootsnd:bootsnd.obj
 0006:00012fbb       ?InsertNode@?$CList@U_SGEHEAPRUNMARKER@@@@QAEXPAU_SGEHEAPRUNMARKER@@0@Z 8005fedb f i bootsnd:bootsnd.obj
 0006:00013007       ?AciSynchronizationRoutine@CAc97Device@@CGEPAX@Z 8005ff27 f i bootsnd:bootsnd.obj
 0006:00013015       ?DeferredCommandDpcRoutine@CMcpxAPU@@CGXPAU_KDPC@@PAX11@Z 8005ff35 f i bootsnd:bootsnd.obj
 0006:00013021       ?CreateChannel@CAc97Device@@QAEJW4AC97CHANNELTYPE@@PAPAVCAc97Channel@@@Z 8005ff41 f   bootsnd:bootsnd.obj
 0006:00013086       ?AttachPacket@CAc97Channel@@QAEXKK@Z 8005ffa6 f   bootsnd:bootsnd.obj
 0006:00013119       ?Reset@CAc97Channel@@QAEXXZ 80060039 f   bootsnd:bootsnd.obj
 0006:0001318d       ?Flush@CAc97Channel@@QAEXH@Z 800600ad f   bootsnd:bootsnd.obj
 0006:000131dd       ?Run@CAc97Channel@@QAEXK@Z 800600fd f   bootsnd:bootsnd.obj
 0006:00013239       ??0CDirectSoundSettings@@QAE@XZ 80060159 f   bootsnd:bootsnd.obj
 0006:00013254       ??_ECDirectSoundSettings@@UAEPAXI@Z 80060174 f i bootsnd:bootsnd.obj
 0006:00013254       ??_GCRefCount@@UAEPAXI@Z   80060174 f i bootsnd:bootsnd.obj
 0006:00013254       ??_GCDirectSoundSettings@@UAEPAXI@Z 80060174 f i bootsnd:bootsnd.obj
 0006:00013254       ??_ECRefCount@@UAEPAXI@Z   80060174 f i bootsnd:bootsnd.obj
 0006:00013279       ??0CDirectSound@@QAE@XZ    80060199 f   bootsnd:bootsnd.obj
 0006:00013296       ?AddRef@CDirectSoundBuffer@@UAGKXZ 800601b6 f i bootsnd:bootsnd.obj
 0006:00013296       ?AddRef@CDirectSound@@UAGKXZ 800601b6 f i bootsnd:bootsnd.obj
 0006:0001329b       ??1CDirectSound@@UAE@XZ    800601bb f   bootsnd:bootsnd.obj
 0006:000132c5       ?SetOutputBuffer@CDirectSoundVoiceSettings@@QAEXPAVCDirectSoundBuffer@@@Z 800601e5 f   bootsnd:bootsnd.obj
 0006:000132de       ??1CDirectSoundVoice@@UAE@XZ 800601fe f   bootsnd:bootsnd.obj
 0006:00013317       ?Initialize@CDirectSoundVoice@@QAGXPAVCMcpxVoiceClient@@PAVCDirectSoundVoiceSettings@@@Z 80060237 f   bootsnd:bootsnd.obj
 0006:00013338       ?SetFilter@CDirectSoundVoice@@QAGJPBU_DSFILTERDESC@@@Z 80060258 f   bootsnd:bootsnd.obj
 0006:00013368       ?SetBufferData@CDirectSoundBufferSettings@@QAEJPAXK@Z 80060288 f   bootsnd:bootsnd.obj
 0006:000133da       ??1CDirectSoundBuffer@@UAE@XZ 800602fa f   bootsnd:bootsnd.obj
 0006:0001341d       ?Release@CDirectSoundBuffer@@UAGKXZ 8006033d f i bootsnd:bootsnd.obj
 0006:00013422       ?GetStatus@CDirectSoundBuffer@@QAGJPAK@Z 80060342 f   bootsnd:bootsnd.obj
 0006:00013452       ?OnPositionDelta@CDirectSoundBuffer@@IAGXK@Z 80060372 f   bootsnd:bootsnd.obj
 0006:000134e3       ?OnStop@CDirectSoundBuffer@@IAGXXZ 80060403 f   bootsnd:bootsnd.obj
 0006:00013506       _XAudioCalculatePitch@4    80060426 f   bootsnd:bootsnd.obj
 0006:00013556       ?MapInputBuffer@CMcpxBuffer@@IAEJXZ 80060476 f   bootsnd:bootsnd.obj
 0006:00013643       ?MapEffectsBuffer@CMcpxBuffer@@IAEXXZ 80060563 f   bootsnd:bootsnd.obj
 0006:000136a6       ?GetCurrentPosition@CMcpxBuffer@@QAEJPAK0@Z 800605c6 f   bootsnd:bootsnd.obj
 0006:00013770       ?WaitForMagicWrite@CMcpxAPU@@IAEXXZ 80060690 f   bootsnd:bootsnd.obj
 0006:000137d1       ?ServiceVoiceInterrupt@CMcpxAPU@@IAEXXZ 800606f1 f   bootsnd:bootsnd.obj
 0006:0001385d       ?RemoveIdleVoice@CMcpxAPU@@IAEXK@Z 8006077d f   bootsnd:bootsnd.obj
 0006:00013893       ?RemoveDeferredCommand@CMcpxAPU@@QAEXPAUMCPX_DEFERRED_COMMAND@@@Z 800607b3 f   bootsnd:bootsnd.obj
 0006:000138d9       ??0CMcpxVoiceClient@@QAE@PAVCMcpxAPU@@@Z 800607f9 f   bootsnd:bootsnd.obj
 0006:000139d3       ??1CMcpxVoiceClient@@UAE@XZ 800608f3 f   bootsnd:bootsnd.obj
 0006:00013a0a       ?Initialize@CMcpxVoiceClient@@QAEJPAVCDirectSoundVoiceSettings@@H@Z 8006092a f   bootsnd:bootsnd.obj
 0006:00013afa       ?AllocateVoiceResources@CMcpxVoiceClient@@IAEJXZ 80060a1a f   bootsnd:bootsnd.obj
 0006:00013cf9       ?SetVolume@CMcpxVoiceClient@@QAEJXZ 80060c19 f   bootsnd:bootsnd.obj
 0006:00013dd9       ?SetPitch@CMcpxVoiceClient@@QAEJXZ 80060cf9 f   bootsnd:bootsnd.obj
 0006:00013e8a       ?SetEG@CMcpxVoiceClient@@QAEJPBU_DSENVELOPEDESC@@@Z 80060daa f   bootsnd:bootsnd.obj
 0006:00013fbc       ?SetupFrontEndProcessor@CMcpxCore@@IAEXXZ 80060edc f   bootsnd:bootsnd.obj
 0006:00014087       ?AllocateApuMemory@CMcpxCore@@IAEJXZ 80060fa7 f   bootsnd:bootsnd.obj
 0006:0001414f       ?SetupGlobalProcessor@CMcpxCore@@IAEXH@Z 8006106f f   bootsnd:bootsnd.obj
 0006:00014279       ?AddNode@?$CList@VCDirectSoundVoice@@@@QAEXPAVCDirectSoundVoice@@@Z 80061199 f i bootsnd:bootsnd.obj
 0006:00014288       ??0?$CHeap@U_SGEHEAPRUNMARKER@@@@QAE@XZ 800611a8 f i bootsnd:bootsnd.obj
 0006:000142a5       ?__Release@@YGXPAPAUIDirectSound@@@Z 800611c5 f i bootsnd:bootsnd.obj
 0006:000142bb       ?__Release@@YGXPAPAUIDirectSoundBuffer@@@Z 800611db f i bootsnd:bootsnd.obj
 0006:000142d1       ?__delete@@YGXPAPAVCMcpxDspScratchDma@@@Z 800611f1 f i bootsnd:bootsnd.obj
 0006:000142e8       ??_G?$CHeap@U_SGEHEAPRUNMARKER@@@@UAEPAXI@Z 80061208 f i bootsnd:bootsnd.obj
 0006:000142e8       ??_E?$CHeap@U_SGEHEAPRUNMARKER@@@@UAEPAXI@Z 80061208 f i bootsnd:bootsnd.obj
 0006:0001430c       ?AddNode@?$CList@U_SGEHEAPRUNMARKER@@@@QAEXPAU_SGEHEAPRUNMARKER@@@Z 8006122c f i bootsnd:bootsnd.obj
 0006:0001431b       ?OnPositionDeltaStatic@CDirectSoundBuffer@@KGXKPAX@Z 8006123b f i bootsnd:bootsnd.obj
 0006:0001432b       ?OnStopStatic@CDirectSoundBuffer@@KGXPAX@Z 8006124b f i bootsnd:bootsnd.obj
 0006:00014330       ?RemoveDeferredCommand@CMcpxBuffer@@IAEXK@Z 80061250 f i bootsnd:bootsnd.obj
 0006:0001434a       ?Initialize@CAc97Channel@@QAEJKP6GXPAX@Z0@Z 8006126a f   bootsnd:bootsnd.obj
 0006:000143ed       ?Terminate@CAc97Channel@@QAEXXZ 8006130d f   bootsnd:bootsnd.obj
 0006:0001442d       ?ServiceInterrupt@CAc97Channel@@IAEXXZ 8006134d f   bootsnd:bootsnd.obj
 0006:00014484       _IDirectSoundBuffer_SetFilter@8 800613a4 f   bootsnd:bootsnd.obj
 0006:000144a0       ??_ECDirectSound@@UAEPAXI@Z 800613c0 f i bootsnd:bootsnd.obj
 0006:000144a0       ??_GCDirectSound@@UAEPAXI@Z 800613c0 f i bootsnd:bootsnd.obj
 0006:000144c4       ?Release@CDirectSound@@UAGKXZ 800613e4 f   bootsnd:bootsnd.obj
 0006:00014500       ??1CDirectSoundVoiceSettings@@UAE@XZ 80061420 f   bootsnd:bootsnd.obj
 0006:00014539       ?Initialize@CDirectSoundVoiceSettings@@QAEJPAVCDirectSoundSettings@@KPBUtWAVEFORMATEX@@K@Z 80061459 f   bootsnd:bootsnd.obj
 0006:000145bf       ??0CDirectSoundVoice@@QAE@PAVCDirectSound@@@Z 800614df f   bootsnd:bootsnd.obj
 0006:000145ea       ??_ECDirectSoundVoice@@UAEPAXI@Z 8006150a f i bootsnd:bootsnd.obj
 0006:000145ea       ??_GCDirectSoundVoice@@UAEPAXI@Z 8006150a f i bootsnd:bootsnd.obj
 0006:0001460e       ?SetPitch@CDirectSoundVoice@@QAGJJ@Z 8006152e f   bootsnd:bootsnd.obj
 0006:00014644       ?SetVolume@CDirectSoundVoice@@QAGJJ@Z 80061564 f   bootsnd:bootsnd.obj
 0006:0001467d       ?SetEG@CDirectSoundVoice@@QAGJPBU_DSENVELOPEDESC@@@Z 8006159d f   bootsnd:bootsnd.obj
 0006:000146ad       ?SetMixBinVolumes@CDirectSoundVoice@@QAGJKPBJ@Z 800615cd f   bootsnd:bootsnd.obj
 0006:00014720       ??1CDirectSoundBufferSettings@@UAE@XZ 80061640 f   bootsnd:bootsnd.obj
 0006:0001473a       ?Initialize@CDirectSoundBufferSettings@@QAEJPAVCDirectSoundSettings@@PBU_DSBUFFERDESC@@@Z 8006165a f   bootsnd:bootsnd.obj
 0006:0001478d       ??0CDirectSoundBuffer@@QAE@PAVCDirectSound@@@Z 800616ad f   bootsnd:bootsnd.obj
 0006:000147a5       ??_ECDirectSoundBuffer@@UAEPAXI@Z 800616c5 f i bootsnd:bootsnd.obj
 0006:000147a5       ??_GCDirectSoundBuffer@@UAEPAXI@Z 800616c5 f i bootsnd:bootsnd.obj
 0006:000147c9       ??0CMcpxBuffer@@QAE@PAVCMcpxAPU@@@Z 800616e9 f   bootsnd:bootsnd.obj
 0006:0001480f       ?AllocateBufferResources@CMcpxBuffer@@IAEJXZ 8006172f f   bootsnd:bootsnd.obj
 0006:00014848       ?ReleaseBufferResources@CMcpxBuffer@@IAEXXZ 80061768 f   bootsnd:bootsnd.obj
 0006:00014874       ?OnPositionDelta@CMcpxBuffer@@IAEXXZ 80061794 f   bootsnd:bootsnd.obj
 0006:000148c9       ?ServiceApuInterruptDpc@CMcpxAPU@@IAEXXZ 800617e9 f   bootsnd:bootsnd.obj
 0006:00014906       ?HandleIdleVoice@CMcpxAPU@@IAEXK@Z 80061826 f   bootsnd:bootsnd.obj
 0006:0001492b       ?ScheduleDeferredCommandHigh@CMcpxAPU@@IAEHPAUMCPX_DEFERRED_COMMAND@@@Z 8006184b f   bootsnd:bootsnd.obj
 0006:000149fd       ??_ECMcpxVoiceClient@@UAEPAXI@Z 8006191d f i bootsnd:bootsnd.obj
 0006:000149fd       ??_GCMcpxVoiceClient@@UAEPAXI@Z 8006191d f i bootsnd:bootsnd.obj
 0006:00014a21       ??1CMcpxGPDspManager@@QAE@XZ 80061941 f   bootsnd:bootsnd.obj
 0006:00014a38       ??0CMcpxBufferSgeHeap@@QAE@XZ 80061958 f   bootsnd:bootsnd.obj
 0006:00014a4a       ??_ECMcpxBufferSgeHeap@@UAEPAXI@Z 8006196a f i bootsnd:bootsnd.obj
 0006:00014a4a       ??_GCMcpxBufferSgeHeap@@UAEPAXI@Z 8006196a f i bootsnd:bootsnd.obj
 0006:00014a74       ?Initialize@?$CHeap@U_SGEHEAPRUNMARKER@@@@UAEJG@Z 80061994 f i bootsnd:bootsnd.obj
 0006:00014b00       ?Alloc@?$CHeap@U_SGEHEAPRUNMARKER@@@@UAEPAU_SGEHEAPRUNMARKER@@G@Z 80061a20 f i bootsnd:bootsnd.obj
 0006:00014ba0       ?Free@?$CHeap@U_SGEHEAPRUNMARKER@@@@UAEXPAU_SGEHEAPRUNMARKER@@@Z 80061ac0 f i bootsnd:bootsnd.obj
 0006:00014c07       ?CoalesceRuns@?$CHeap@U_SGEHEAPRUNMARKER@@@@EAEPAU_SGEHEAPRUNMARKER@@PAU2@0@Z 80061b27 f i bootsnd:bootsnd.obj
 0006:00014c36       ??_GCMcpxGPDspManager@@QAEPAXI@Z 80061b56 f i bootsnd:bootsnd.obj
 0006:00014c5a       ?Initialize@CMcpxBufferSgeHeap@@UAEJG@Z 80061b7a f i bootsnd:bootsnd.obj
 0006:00014c5f       ?ApuInterruptDpcRoutine@CMcpxAPU@@CGXPAU_KDPC@@PAX11@Z 80061b7f f i bootsnd:bootsnd.obj
 0006:00014c6b       ?ServiceAciInterrupt@CAc97Device@@IAEKXZ 80061b8b f   bootsnd:bootsnd.obj
 0006:00014d3e       ?ServiceAciInterruptDpc@CAc97Device@@IAEXXZ 80061c5e f   bootsnd:bootsnd.obj
 0006:00014d96       _IDirectSoundBuffer_SetVolume@8 80061cb6 f   bootsnd:bootsnd.obj
 0006:00014db2       _IDirectSoundBuffer_SetPitch@8 80061cd2 f   bootsnd:bootsnd.obj
 0006:00014dce       _IDirectSoundBuffer_SetEG@8 80061cee f   bootsnd:bootsnd.obj
 0006:00014dea       _IDirectSoundBuffer_SetMixBinVolumes@12 80061d0a f   bootsnd:bootsnd.obj
 0006:00014e0a       ??_ECDirectSoundVoiceSettings@@UAEPAXI@Z 80061d2a f i bootsnd:bootsnd.obj
 0006:00014e0a       ??_GCDirectSoundVoiceSettings@@UAEPAXI@Z 80061d2a f i bootsnd:bootsnd.obj
 0006:00014e2e       ??_GCDirectSoundBufferSettings@@UAEPAXI@Z 80061d4e f i bootsnd:bootsnd.obj
 0006:00014e2e       ??_ECDirectSoundBufferSettings@@UAEPAXI@Z 80061d4e f i bootsnd:bootsnd.obj
 0006:00014e52       ??1CMcpxBuffer@@UAE@XZ     80061d72 f   bootsnd:bootsnd.obj
 0006:00014e86       ?Initialize@CMcpxBuffer@@QAEJPAVCDirectSoundBufferSettings@@ABUVADBUFFEREVENTSINK@@PAX@Z 80061da6 f   bootsnd:bootsnd.obj
 0006:00014ef5       ?SetBufferData@CMcpxBuffer@@QAEJXZ 80061e15 f   bootsnd:bootsnd.obj
 0006:00014f09       ?ReleaseBufferData@CMcpxBuffer@@QAEJXZ 80061e29 f   bootsnd:bootsnd.obj
 0006:00014f2f       ?Stop@CMcpxBuffer@@QAEJXZ  80061e4f f   bootsnd:bootsnd.obj
 0006:00014f82       ?CreateBuffer@CMcpxAPU@@QAEJPAVCDirectSoundBufferSettings@@ABUVADBUFFEREVENTSINK@@PAXPAPAVCMcpxBuffer@@@Z 80061ea2 f   bootsnd:bootsnd.obj
 0006:00014fed       ?HandleSoftwareMethod@CMcpxAPU@@IAEXKK@Z 80061f0d f   bootsnd:bootsnd.obj
 0006:00015003       ?ScheduleDeferredCommand@CMcpxAPU@@QAEHPAUMCPX_DEFERRED_COMMAND@@@Z 80061f23 f   bootsnd:bootsnd.obj
 0006:0001504c       ?DeactivateVoice@CMcpxVoiceClient@@UAEXHH@Z 80061f6c f   bootsnd:bootsnd.obj
 0006:0001517d       ?Alloc@CMcpxBufferSgeHeap@@UAEPAU_SGEHEAPRUNMARKER@@PAXK@Z 8006209d f   bootsnd:bootsnd.obj
 0006:000151f4       ?Free@CMcpxBufferSgeHeap@@UAEXPAU_SGEHEAPRUNMARKER@@@Z 80062114 f   bootsnd:bootsnd.obj
 0006:00015230       ?__delete@@YGXPAPAVCMcpxGPDspManager@@@Z 80062150 f i bootsnd:bootsnd.obj
 0006:00015247       ??_GCAc97Channel@@QAEPAXI@Z 80062167 f i bootsnd:bootsnd.obj
 0006:0001526b       ?AciInterruptServiceRoutine@CAc97Device@@CGEPAU_KINTERRUPT@@PAX@Z 8006218b f i bootsnd:bootsnd.obj
 0006:0001527c       ?AciInterruptDpcHandler@CAc97Device@@CGXPAU_KDPC@@PAX11@Z 8006219c f i bootsnd:bootsnd.obj
 0006:00015288       ?ScheduleDeferredCommand@CMcpxBuffer@@IAEHK_JK@Z 800621a8 f i bootsnd:bootsnd.obj
 0006:000152b7       ?Initialize@CDirectSoundBuffer@@QAGJPBU_DSBUFFERDESC@@@Z 800621d7 f   bootsnd:bootsnd.obj
 0006:00015376       ?SetBufferData@CDirectSoundBuffer@@QAGJPAXK@Z 80062296 f   bootsnd:bootsnd.obj
 0006:000153ea       ??_ECMcpxBuffer@@UAEPAXI@Z 8006230a f i bootsnd:bootsnd.obj
 0006:000153ea       ??_GCMcpxBuffer@@UAEPAXI@Z 8006230a f i bootsnd:bootsnd.obj
 0006:0001540e       ?Play@CMcpxBuffer@@QAEJH@Z 8006232e f   bootsnd:bootsnd.obj
 0006:00015796       ?SetLoopRegion@CMcpxBuffer@@QAEJXZ 800626b6 f   bootsnd:bootsnd.obj
 0006:000157b3       ?Stop@CMcpxBuffer@@QAEJ_J@Z 800626d3 f   bootsnd:bootsnd.obj
 0006:000157e7       ?NoteOff@CMcpxBuffer@@QAEJH@Z 80062707 f   bootsnd:bootsnd.obj
 0006:00015817       ?SetCurrentPosition@CMcpxBuffer@@QAEJK@Z 80062737 f   bootsnd:bootsnd.obj
 0006:000158fb       ?ServiceDeferredCommand@CMcpxBuffer@@MAEXKK@Z 8006281b f   bootsnd:bootsnd.obj
 0006:0001593c       ?ServiceVoiceInterrupt@CMcpxBuffer@@MAEHXZ 8006285c f   bootsnd:bootsnd.obj
 0006:00015979       ?HandleFETrap@CMcpxAPU@@IAEXXZ 80062899 f   bootsnd:bootsnd.obj
 0006:000159c0       ?ActivateVoice@CMcpxVoiceClient@@UAEXXZ 800628e0 f   bootsnd:bootsnd.obj
 0006:00015b9a       ?__delete@@YGXPAPAVCAc97Channel@@@Z 80062aba f i bootsnd:bootsnd.obj
 0006:00015bb1       ?ReleaseChannel@CAc97Device@@QAEXW4AC97CHANNELTYPE@@@Z 80062ad1 f   bootsnd:bootsnd.obj
 0006:00015be0       _IDirectSoundBuffer_SetBufferData@12 80062b00 f   bootsnd:bootsnd.obj
 0006:00015c00       ?CreateSoundBuffer@CDirectSound@@QAGJPBU_DSBUFFERDESC@@PAPAUIDirectSoundBuffer@@PAUIUnknown@@@Z 80062b20 f   bootsnd:bootsnd.obj
 0006:00015c7f       ?SetLoopRegion@CDirectSoundBuffer@@QAGJKK@Z 80062b9f f   bootsnd:bootsnd.obj
 0006:00015ccb       ?SetCurrentPosition@CDirectSoundBuffer@@QAGJK@Z 80062beb f   bootsnd:bootsnd.obj
 0006:00015cfb       ?Play@CMcpxBuffer@@QAEJ_JH@Z 80062c1b f   bootsnd:bootsnd.obj
 0006:00015d34       ?NoteOff@CMcpxBuffer@@QAEJ_JH@Z 80062c54 f   bootsnd:bootsnd.obj
 0006:00015d6d       ?ServiceApuInterrupt@CMcpxAPU@@IAEHXZ 80062c8d f   bootsnd:bootsnd.obj
 0006:00015db5       ?ApuInterruptServiceRoutine@CMcpxAPU@@CGEPAU_KINTERRUPT@@PAX@Z 80062cd5 f i bootsnd:bootsnd.obj
 0006:00015dc1       ?Terminate@CAc97Device@@QAEXXZ 80062ce1 f   bootsnd:bootsnd.obj
 0006:00015e31       _IDirectSound_CreateSoundBuffer@16 80062d51 f   bootsnd:bootsnd.obj
 0006:00015e55       _IDirectSoundBuffer_SetLoopRegion@12 80062d75 f   bootsnd:bootsnd.obj
 0006:00015e75       _IDirectSoundBuffer_SetCurrentPosition@8 80062d95 f   bootsnd:bootsnd.obj
 0006:00015e91       ?PlayEx@CDirectSoundBuffer@@QAGJ_JK@Z 80062db1 f   bootsnd:bootsnd.obj
 0006:00015ecd       ?StopEx@CDirectSoundBuffer@@QAGJ_JK@Z 80062ded f   bootsnd:bootsnd.obj
 0006:00015f22       ?Reset@CMcpxCore@@IAEXH@Z  80062e42 f   bootsnd:bootsnd.obj
 0006:00015fee       ?AciShutdownNotifier@CAc97Device@@CGXPAU_HAL_SHUTDOWN_REGISTRATION@@@Z 80062f0e f i bootsnd:bootsnd.obj
 0006:00015ffd       ??1CAc97Device@@QAE@XZ     80062f1d f   bootsnd:bootsnd.obj
 0006:0001600a       ?Initialize@CAc97Device@@QAEJK@Z 80062f2a f   bootsnd:bootsnd.obj
 0006:000160e4       _IDirectSoundBuffer_StopEx@16 80063004 f   bootsnd:bootsnd.obj
 0006:00016108       ?Play@CDirectSoundBuffer@@QAGJKKK@Z 80063028 f   bootsnd:bootsnd.obj
 0006:00016139       ?Terminate@CMcpxAPU@@IAEXXZ 80063059 f   bootsnd:bootsnd.obj
 0006:00016197       ??1CMcpxCore@@UAE@XZ       800630b7 f   bootsnd:bootsnd.obj
 0006:000161e1       ?SetupAc97@CMcpxCore@@IAEJXZ 80063101 f   bootsnd:bootsnd.obj
 0006:0001627e       ?ApuShutdownNotifier@CMcpxAPU@@CGXPAU_HAL_SHUTDOWN_REGISTRATION@@@Z 8006319e f i bootsnd:bootsnd.obj
 0006:00016290       _IDirectSoundBuffer_Play@16 800631b0 f   bootsnd:bootsnd.obj
 0006:000162b4       ??0CMcpxAPU@@QAE@XZ        800631d4 f   bootsnd:bootsnd.obj
 0006:0001643b       ??1CMcpxAPU@@UAE@XZ        8006335b f   bootsnd:bootsnd.obj
 0006:000164e4       ??_GCMcpxCore@@UAEPAXI@Z   80063404 f i bootsnd:bootsnd.obj
 0006:000164e4       ??_ECMcpxCore@@UAEPAXI@Z   80063404 f i bootsnd:bootsnd.obj
 0006:00016508       ?Initialize@CMcpxCore@@QAEJPAVCDirectSoundSettings@@H@Z 80063428 f   bootsnd:bootsnd.obj
 0006:000165b2       ??_ECMcpxAPU@@UAEPAXI@Z    800634d2 f i bootsnd:bootsnd.obj
 0006:000165b2       ??_GCMcpxAPU@@UAEPAXI@Z    800634d2 f i bootsnd:bootsnd.obj
 0006:000165d6       ?Initialize@CMcpxAPU@@QAEJPAVCDirectSoundSettings@@@Z 800634f6 f   bootsnd:bootsnd.obj
 0006:000166d7       ?Initialize@CDirectSound@@QAGJXZ 800635f7 f   bootsnd:bootsnd.obj
 0006:000167e2       _DirectSoundCreate@12      80063702 f   bootsnd:bootsnd.obj
 0006:0001687f       _DirectSoundCreateBuffer@8 8006379f f   bootsnd:bootsnd.obj
 0006:000168c0       ?m_dwAc97RegisterBase@CAc97Device@@2KB 800637e0     bootsnd:bootsnd.obj
 0006:000168c4       ?m_dwAciRegisterBase@CAc97Device@@2KB 800637e4     bootsnd:bootsnd.obj
 0006:000168c8       ?m_wfxFormat@CAc97Device@@2UtWAVEFORMATEX@@B 800637e8     bootsnd:bootsnd.obj
 0006:000168dc       ?m_adwRegisterOffsets@CAc97Channel@@2QBKB 800637fc     bootsnd:bootsnd.obj
 0006:000168e4       ?m_dwSilenceSize@CAc97Channel@@2KB 80063804     bootsnd:bootsnd.obj
 0006:000168e8       ?m_wfxMixDest@CDirectSoundVoiceSettings@@2UtWAVEFORMATEX@@B 80063808     bootsnd:bootsnd.obj
 0006:000168fc       ?m_adwGPOutputBufferSizes@CMcpxCore@@2QBKB 8006381c     bootsnd:bootsnd.obj
 0006:00016900       ?m_adwEPOutputBufferSizes@CMcpxCore@@2QBKB 80063820     bootsnd:bootsnd.obj
 0006:000169a8       ?m_pDevice@CAc97Device@@2PAV1@A 800638c8     bootsnd:bootsnd.obj
 0006:000169b0       ?m_Interrupt@CAc97Device@@1U_KINTERRUPT@@A 800638d0     bootsnd:bootsnd.obj
 0006:00016a20       _g_dwDirectSoundOverrideSpeakerConfig 80063940     bootsnd:bootsnd.obj
 0006:00016a24       ?g_DirectSoundCriticalSection@@3U_RTL_CRITICAL_SECTION@@A 80063944     bootsnd:bootsnd.obj
 0006:00016a40       ?m_dwRefCount@CFpState@@0KA 80063960     bootsnd:bootsnd.obj
 0006:000182e0       ?m_pDirectSound@CDirectSound@@2PAV1@A 80065200     bootsnd:bootsnd.obj
 0006:000182e4       ?m_fps@CFpState@@0U_KFLOATING_SAVE@@A 80065204     bootsnd:bootsnd.obj
 0006:00018308       ?m_Interrupt@CMcpxAPU@@1U_KINTERRUPT@@A 80065228     bootsnd:bootsnd.obj
 0006:00018378       _g_dwDirectSoundPhysicalMemoryUsage 80065298     bootsnd:bootsnd.obj
 0006:0001837c       _g_dwDirectSoundPoolMemoryUsage 8006529c     bootsnd:bootsnd.obj
 0006:00018390       _HalpInitializeSystemControlInterrupt@0 800652b0 f   halx:smbussci.obj
 0006:000183c1       _HalBlockIfNoAVPack@0      800652e1 f   halx:smbussci.obj
 0006:0001840d       _HalpProcessSMCInitialState@0 8006532d f   halx:smbussci.obj
 0006:00018500       _HalpInitializeRealTimeClock@0 80065420 f   halx:ixstall.obj
 0006:0001854c       _main                      8006546c f   init:xboxkrnl.obj
 0006:0001860f       _ExpDecryptEEPROM@0        8006552f f   init:init.obj
 0006:000186e9       _ExpTryToBootMediaROM@0    80065609 f   init:init.obj
 0006:000188e2       _ExpDetectSettingsError@0  80065802 f   init:init.obj
 0006:00018960       _ExpCopyLastUEMError@0     80065880 f   init:init.obj
 0006:000189bd       _InitD3D@0                 800658dd f   init:fatal.obj
 0006:00018a31       _InitVB@4                  80065951 f   init:fatal.obj
 0006:00018a94       _ColorFromIntensity@4      800659b4 f   init:fatal.obj
 0006:00018ad1       _InitTexture@4             800659f1 f   init:fatal.obj
 0006:00018c16       _ExDisplayFatalError@4     80065b36 f   init:fatal.obj
 0006:00018de4       _KiSystemStartup@0         80065d04 f   ke:newsysbg.obj
 0006:00018e9b       _KiSwapGDT@0               80065dbb f   ke:kernlini.obj
 0006:00018ed0       _MiCopyShadowROMDataSection@0 80065df0 f   mmcon:mminit.obj
 0006:00018f46       _MiInitializePfnDatabase@0 80065e66 f   mmcon:pfnsup.obj
 0006:00019158       _IdexDiskFatalError@4      80066078 f   idexcon:disk.obj
 0006:0001916c       _IdexDiskInitIdentifierString@16 8006608c f   idexcon:disk.obj
 0006:000191ce       _IdexDiskSetDeviceParameters@0 800660ee f   idexcon:disk.obj
 0006:0001921d       _IdexDiskSecurityUnlock@4  8006613d f   idexcon:disk.obj
 0006:000192de       _IdexDiskIncrementPowerCycleCount@0 800661fe f   idexcon:disk.obj
 0006:00019319       _IdexDiskCreate@0          80066239 f   idexcon:disk.obj
 0006:00019486       _IdexChannelIdentifyDevice@12 800663a6 f   idexcon:channel.obj
 0006:00019507       _IdexChannelSetTransferMode@8 80066427 f   idexcon:channel.obj
 0006:0001955c       _IdexCdRomFatalError@4     8006647c f   idexcon:cdrom.obj
 0006:0001956d       _IdexCdRomCreate@0         8006648d f   idexcon:cdrom.obj
 0006:0001968d       _XeLoadImageAfterTrayEjectBoot@0 800665ad f   ldrcon:loader.obj
 0006:000196fc       _AniTerminateAnimation@0   8006661c f   ani:animate.obj
 0006:00019724       _AniBlockOnAnimation@0     80066644 f   ani:animate.obj
 0006:00019776       _MemAllocContiguous@8      80066696 f   ani:animate.obj
 0006:00019792       _MemFreeContiguous@4       800666b2 f   ani:animate.obj
 0006:00019797       _AnipStartAnimationThread@8 800666b7 f   ani:animate.obj
 0006:000197a4       __ftol2                    800666c4 f   ani:animate.obj
 0006:000197d0       _AniStartAnimation@4       800666f0 f   ani:animate.obj
 0006:0001980e       ?MemAlloc@@YGPAXI@Z        8006672e f i ani:mslogo.obj
 0006:00019841       ?InitVB@@YGHPAUD3DDevice@@@Z 80066761 f   ani:mslogo.obj
 0006:00019895       ?ColorFromIntensity@@YGKI@Z 800667b5 f   ani:mslogo.obj
 0006:000198dc       ?InitTexture@@YGHPAUD3DDevice@@@Z 800667fc f   ani:mslogo.obj
 0006:000199b9       ?UnInitMicrosoftLogo@@YGXXZ 800668d9 f   ani:mslogo.obj
 0006:000199e7       ?RenderMicrosoftLogo@@YGXXZ 80066907 f   ani:mslogo.obj
 0006:00019e09       _AniSetLogo@8              80066d29 f   ani:mslogo.obj
 0006:00019e6d       ?WaitOnMicrosoftLogo@@YGXXZ 80066d8d f   ani:mslogo.obj
 0006:00019e90       ?TransformVector@@YGXABU_D3DVECTOR@@ABU_D3DMATRIX@@PAU1@@Z 80066db0 f i ani:xbs_app.obj
 0006:00019ee5       ?MulMats@@YGXABU_D3DMATRIX@@0PAU1@@Z 80066e05 f i ani:xbs_app.obj
 0006:0001a0fb       ?Length2@@YGMABU_D3DVECTOR@@@Z 8006701b f i ani:xbs_app.obj
 0006:0001a120       ?Length@@YGMABU_D3DVECTOR@@@Z 80067040 f i ani:xbs_app.obj
 0006:0001a135       ?Distance2@@YGMABU_D3DVECTOR@@0@Z 80067055 f i ani:xbs_app.obj
 0006:0001a166       ?Distance@@YGMABU_D3DVECTOR@@0@Z 80067086 f i ani:xbs_app.obj
 0006:0001a17f       ?AngleFromSinCos@@YGMABM0@Z 8006709f f i ani:xbs_app.obj
 0006:0001a266       ?fRand01@XBoxStartupApp@@QAEMXZ 80067186 f i ani:xbs_app.obj
 0006:0001a288       ?fRand11@XBoxStartupApp@@QAEMXZ 800671a8 f i ani:xbs_app.obj
 0006:0001a2b0       ?WriteSMC@@YGKEE@Z         800671d0 f   ani:xbs_app.obj
 0006:0001a2c6       ?MemFree@D3DK@@YGXPAX@Z    800671e6 f   ani:xbs_app.obj
 0006:0001a2cb       ?MemAllocNoZero@D3DK@@YGPAXK@Z 800671eb f   ani:xbs_app.obj
 0006:0001a2cb       ?MemAlloc@D3DK@@YGPAXK@Z   800671eb f   ani:xbs_app.obj
 0006:0001a2d0       ?Construct@XBoxStartupApp@@QAEXXZ 800671f0 f   ani:xbs_app.obj
 0006:0001a510       ?drawFrame@XBoxStartupApp@@AAEXXZ 80067430 f   ani:xbs_app.obj
 0006:0001a608       ?shutdown@XBoxStartupApp@@QAEXXZ 80067528 f   ani:xbs_app.obj
 0006:0001a6c6       ?loadVertexShader@XBoxStartupApp@@QAEKPBEPBK@Z 800675e6 f   ani:xbs_app.obj
 0006:0001a6e1       ?loadPixelShader@XBoxStartupApp@@QAEKPBE@Z 80067601 f   ani:xbs_app.obj
 0006:0001a6fb       ?initIntensityPulses@XBoxStartupApp@@AAEXXZ 8006761b f   ani:xbs_app.obj
 0006:0001a80c       ?sumIntensityPulses@XBoxStartupApp@@AAEMM@Z 8006772c f   ani:xbs_app.obj
 0006:0001a886       ?SetXRotation@@YGXMPAU_D3DMATRIX@@@Z 800677a6 f i ani:xbs_app.obj
 0006:0001a90a       ?SetZRotation@@YGXMPAU_D3DMATRIX@@@Z 8006782a f i ani:xbs_app.obj
 0006:0001a990       ?advanceTime@XBoxStartupApp@@AAEXMM@Z 800678b0 f   ani:xbs_app.obj
 0006:0001ae28       ?init@XBoxStartupApp@@QAE_NHH@Z 80067d48 f   ani:xbs_app.obj
 0006:0001b0e0       ?process@XBoxStartupApp@@AAEXXZ 80068000 f   ani:xbs_app.obj
 0006:0001b14f       ?run@XBoxStartupApp@@QAEHXZ 8006806f f   ani:xbs_app.obj
 0006:0001b18b       _AnipRunAnimation@0        800680ab f   ani:xbs_app.obj
 0006:0001b1e9       ?Init@Renderer@@QAEXXZ     80068109 f   ani:renderer.obj
 0006:0001b1f1       ?init@Renderer@@QAE_NHH@Z  80068111 f   ani:renderer.obj
 0006:0001b32d       ?shutdown@Renderer@@QAEXXZ 8006824d f   ani:renderer.obj
 0006:0001b340       ?fast_atan@@YGMM@Z         80068260 f   ani:fastmath.obj
 0006:0001b5c4       ?fast_asin@@YGMM@Z         800684e4 f   ani:fastmath.obj
 0006:0001b6d9       ?fast_sqrt@@YGMM@Z         800685f9 f   ani:fastmath.obj
 0006:0001b720       ?fast_fabs@@YGMM@Z         80068640 f   ani:fastmath.obj
 0006:0001b734       ?fast_sin@@YGMM@Z          80068654 f   ani:fastmath.obj
 0006:0001b7d0       ?fast_acos@@YGMM@Z         800686f0 f   ani:fastmath.obj
 0006:0001b826       ?SetTranspose@@YGXABU_D3DMATRIX@@PAU1@@Z 80068746 f i ani:vblob.obj
 0006:0001b88f       ?SetIdentity@@YGXPAU_D3DMATRIX@@@Z 800687af f i ani:vblob.obj
 0006:0001b8e5       ?Dot@@YGMABU_D3DVECTOR@@0@Z 80068805 f i ani:vblob.obj
 0006:0001b904       ?Normalize@@YGXPAU_D3DVECTOR@@@Z 80068824 f i ani:vblob.obj
 0006:0001b92d       ?Scale@@YGXPAU_D3DVECTOR@@M@Z 8006884d f i ani:vblob.obj
 0006:0001b950       ?Sub@@YGXABU_D3DVECTOR@@0PAU1@@Z 80068870 f i ani:vblob.obj
 0006:0001b977       ?AddScaled@@YGXPAU_D3DVECTOR@@ABU1@M@Z 80068897 f i ani:vblob.obj
 0006:0001b9a5       ?QuickLength@@YGMABU_D3DVECTOR@@@Z 800688c5 f i ani:vblob.obj
 0006:0001ba27       ?QuickNormalize@@YGXPAU_D3DVECTOR@@@Z 80068947 f i ani:vblob.obj
 0006:0001ba57       ?Add@@YGXABU_D3DVECTOR@@0PAU1@@Z 80068977 f i ani:vblob.obj
 0006:0001ba7e       ?fRand01@VBlob@@SGMXZ      8006899e f i ani:vblob.obj
 0006:0001ba9f       ?fRand11@VBlob@@SGMXZ      800689bf f i ani:vblob.obj
 0006:0001bac6       ?destroy@VBlob@@QAEXXZ     800689e6 f   ani:vblob.obj
 0006:0001bb56       ?render@VBlob@@QAEXXZ      80068a76 f   ani:vblob.obj
 0006:0001c26f       ?zeroChangingVertices@VBlob@@IAEXXZ 8006918f f   ani:vblob.obj
 0006:0001c2d6       ?prepareChangingVertices@VBlob@@IAEXXZ 800691f6 f   ani:vblob.obj
 0006:0001c462       ?getLightForPosition@VBlob@@QAEXPAU_D3DVECTOR@@PAMU2@@Z 80069382 f   ani:vblob.obj
 0006:0001c535       ?generateUnitSphere@VBlob@@KG_NHPAPAUD3DVertexBuffer@@PAPAUD3DIndexBuffer@@PAPAU_D3DVECTOR@@PAK3@Z 80069455 f   ani:vblob.obj
 0006:0001c73f       ?recalculateFacesOfInterest@VBlobBump@@IAEXXZ 8006965f f   ani:vblob.obj
 0006:0001c7e9       ?update@VBloblet@@QAE_NMM@Z 80069709 f   ani:vblob.obj
 0006:0001c991       ?Init@VBlob@@QAEXXZ        800698b1 f   ani:vblob.obj
 0006:0001ca41       ?create@VBlobBump@@QAE_NMPAVVBloblet@@@Z 80069961 f   ani:vblob.obj
 0006:0001ccb1       ?update@VBlobBump@@QAE_NMMPAVVBloblet@@@Z 80069bd1 f   ani:vblob.obj
 0006:0001ce82       ?advanceTime@VBlob@@QAEXMM@Z 80069da2 f   ani:vblob.obj
 0006:0001cf61       ?restart@VBlob@@QAEXXZ     80069e81 f   ani:vblob.obj
 0006:0001cfdf       ?create@VBlob@@QAEXXZ      80069eff f   ani:vblob.obj
 0006:0001d127       ?TransformPoint@@YGXABUD3DVECTOR4@@ABU_D3DMATRIX@@PAU1@@Z 8006a047 f i ani:greenfog.obj
 0006:0001d1b4       ?SetScale@@YGXMMMPAU_D3DMATRIX@@@Z 8006a0d4 f i ani:greenfog.obj
 0006:0001d210       ?Init@GreenFog@@QAEXXZ     8006a130 f   ani:greenfog.obj
 0006:0001d231       ?destroy@GreenFog@@QAEXXZ  8006a151 f   ani:greenfog.obj
 0006:0001d2c6       ?render@GreenFog@@QAEX_N@Z 8006a1e6 f   ani:greenfog.obj
 0006:0001d816       ?restart@GreenFog@@QAEXXZ  8006a736 f   ani:greenfog.obj
 0006:0001d85b       ?renderIntensityTexture@GreenFog@@IAEXXZ 8006a77b f   ani:greenfog.obj
 0006:0001dada       ?create@GreenFog@@QAEXXZ   8006a9fa f   ani:greenfog.obj
 0006:0001dcd5       ?advanceTime@GreenFog@@QAEXMM@Z 8006abf5 f   ani:greenfog.obj
 0006:0001dcdd       ?Rand@QRand@@QAEHH@Z       8006abfd f   ani:qrand.obj
 0006:0001dd02       ?Rand@QRand@@QAEHXZ        8006ac22 f   ani:qrand.obj
 0006:0001dd1f       ?Cross@@YGXABU_D3DVECTOR@@0PAU1@@Z 8006ac3f f i ani:camcontrol.obj
 0006:0001dd5c       ?getNode@CameraController@@IAEPAUCamControlNode@@H@Z 8006ac7c f i ani:camcontrol.obj
 0006:0001dd88       ?pickPath@CameraController@@QAEXH@Z 8006aca8 f   ani:camcontrol.obj
 0006:0001e2dd       ?getPosition@CameraController@@QAEXMPAU_D3DVECTOR@@0PA_N1@Z 8006b1fd f   ani:camcontrol.obj
 0006:0001e633       ?Init@CameraController@@QAEXXZ 8006b553 f   ani:camcontrol.obj
 0006:0001e6cc       ?Init@Camera@@QAEXXZ       8006b5ec f   ani:camera.obj
 0006:0001e6d5       ?getWTP@Camera@@QAEAAU_D3DMATRIX@@XZ 8006b5f5 f   ani:camera.obj
 0006:0001e6fe       ?SetLookAt@@YGXABU_D3DVECTOR@@00PAU_D3DMATRIX@@@Z 8006b61e f i ani:camera.obj
 0006:0001e7f7       ?SetProjection@@YGXMMMMPAU_D3DMATRIX@@@Z 8006b717 f i ani:camera.obj
 0006:0001e899       ?SetInverse@@YGXABU_D3DMATRIX@@PAU1@@Z 8006b7b9 f i ani:camera.obj
 0006:0001e92b       ?lookAt@Camera@@QAEXABU_D3DVECTOR@@00@Z 8006b84b f   ani:camera.obj
 0006:0001e983       ?setProjection@Camera@@QAEXMMMM@Z 8006b8a3 f   ani:camera.obj
 0006:0001e9d2       ?setWTC@Camera@@QAEXABU_D3DMATRIX@@@Z 8006b8f2 f   ani:camera.obj
 0006:0001ea03       ?decompressPosData@LogoRenderer@@AAEPAMPAFHMM@Z 8006b923 f   ani:logo_renderer.obj
 0006:0001ea3f       ?decompressPosTexData@LogoRenderer@@AAEPAMPAFHMMMM@Z 8006b95f f   ani:logo_renderer.obj
 0006:0001eade       ?decompressIndexData@LogoRenderer@@AAEPAGPADH@Z 8006b9fe f   ani:logo_renderer.obj
 0006:0001eb33       ?decompressData@LogoRenderer@@AAEXXZ 8006ba53 f   ani:logo_renderer.obj
 0006:0001ed74       ?createSlash@LogoRenderer@@AAEXXZ 8006bc94 f   ani:logo_renderer.obj
 0006:0001ef96       ?createText@LogoRenderer@@AAEXXZ 8006beb6 f   ani:logo_renderer.obj
 0006:0001f00a       ?createTMs@LogoRenderer@@AAEXXZ 8006bf2a f   ani:logo_renderer.obj
 0006:0001f130       ?destroy@LogoRenderer@@QAEXXZ 8006c050 f   ani:logo_renderer.obj
 0006:0001f250       ?create@LogoRenderer@@QAEXXZ 8006c170 f   ani:logo_renderer.obj
 0006:0001f2c5       ?render@LogoRenderer@@QAEXABU_D3DMATRIX@@_N@Z 8006c1e5 f   ani:logo_renderer.obj
 0006:0001f955       ?createSlashSurface@LogoRenderer@@AAEXXZ 8006c875 f   ani:logo_renderer.obj
 0006:0001fa86       ?advanceTime@LogoRenderer@@QAEXMM@Z 8006c9a6 f   ani:logo_renderer.obj
 0006:0001fbe5       ?SetRotationFromRHQuat@@YGXABUD3DVECTOR4@@PAU_D3DMATRIX@@@Z 8006cb05 f i ani:scene_renderer.obj
 0006:0001fd10       ?SetRotationFromLHQuat@@YGXABUD3DVECTOR4@@PAU_D3DMATRIX@@@Z 8006cc30 f i ani:scene_renderer.obj
 0006:0001fe3b       ?TransformPoint@@YGXABU_D3DVECTOR@@ABU_D3DMATRIX@@PAU1@@Z 8006cd5b f i ani:scene_renderer.obj
 0006:0001fe99       ?DotQuats@@YGMABUD3DVECTOR4@@0@Z 8006cdb9 f i ani:scene_renderer.obj
 0006:0001fec0       ?IsEq@@YG_NMM@Z            8006cde0 f i ani:scene_renderer.obj
 0006:0001fee8       ?Init@PrimitiveSet@@QAEXXZ 8006ce08 f   ani:scene_renderer.obj
 0006:0001feff       ?UnInit@PrimitiveSet@@QAEXXZ 8006ce1f f   ani:scene_renderer.obj
 0006:0001ff5c       ?createSphereVersion@PrimitiveSet@@AAEXPBUSphereVers@@PAE1PAGHH@Z 8006ce7c f   ani:scene_renderer.obj
 0006:00020158       ?createCylinderVersion@PrimitiveSet@@AAEXPBUCylinderVers@@PAE1PAGHH@Z 8006d078 f   ani:scene_renderer.obj
 0006:000204b6       ?createConeVersion@PrimitiveSet@@AAEXPBUConeVers@@PAE1PAGHH@Z 8006d3d6 f   ani:scene_renderer.obj
 0006:000208e6       ?createBoxVersion@PrimitiveSet@@AAEXPAE0PAGH@Z 8006d806 f   ani:scene_renderer.obj
 0006:00020c9d       ?createTorusVersion@PrimitiveSet@@AAEXPBUTorusVers@@PAE1PAGHH@Z 8006dbbd f   ani:scene_renderer.obj
 0006:00020ee5       ?initSphereInstance@PrimitiveSet@@AAEXPBUSphereInst@@H@Z 8006de05 f   ani:scene_renderer.obj
 0006:0002110f       ?initSphereVersion@PrimitiveSet@@AAEXPBUSphereVers@@HH@Z 8006e02f f   ani:scene_renderer.obj
 0006:00021160       ?initCylinderVersion@PrimitiveSet@@AAEXPBUCylinderVers@@HH@Z 8006e080 f   ani:scene_renderer.obj
 0006:000211c8       ?initConeVersion@PrimitiveSet@@AAEXPBUConeVers@@HH@Z 8006e0e8 f   ani:scene_renderer.obj
 0006:00021232       ?initBoxVersion@PrimitiveSet@@AAEXH@Z 8006e152 f   ani:scene_renderer.obj
 0006:00021260       ?initTorusVersion@PrimitiveSet@@AAEXPBUTorusVers@@HH@Z 8006e180 f   ani:scene_renderer.obj
 0006:000212b4       ?initSurfOfRevVersion@PrimitiveSet@@AAEXPBUSurfOfRevVers@@HH@Z 8006e1d4 f   ani:scene_renderer.obj
 0006:00021343       ?decompressQuats@SceneRenderer@@IAEPAUD3DVECTOR4@@PAFPAKH@Z 8006e263 f   ani:scene_renderer.obj
 0006:00021412       ?decompressVecs@SceneRenderer@@IAEPAU_D3DVECTOR@@PAFH@Z 8006e332 f   ani:scene_renderer.obj
 0006:00021488       ?decompressIndices@SceneRenderer@@IAEPAFPADH@Z 8006e3a8 f   ani:scene_renderer.obj
 0006:000214f3       ?destroy@SceneRenderer@@QAEXXZ 8006e413 f   ani:scene_renderer.obj
 0006:000215a9       ?SetQuatFromAxis@@YGXABU_D3DVECTOR@@MPAUD3DVECTOR4@@@Z 8006e4c9 f i ani:scene_renderer.obj
 0006:00021609       ?SlerpQuats@@YGXABUD3DVECTOR4@@0MPAU1@@Z 8006e529 f i ani:scene_renderer.obj
 0006:00021768       ?createSurfOfRevVersion@PrimitiveSet@@AAEXPBUSurfOfRevVers@@PAE1PAGHH@Z 8006e688 f   ani:scene_renderer.obj
 0006:00021c38       ?initCylinderInstance@PrimitiveSet@@AAEXPBUCylinderInst@@H@Z 8006eb58 f   ani:scene_renderer.obj
 0006:00021e1a       ?initConeInstance@PrimitiveSet@@AAEXPBUConeInst@@H@Z 8006ed3a f   ani:scene_renderer.obj
 0006:00021e1a       ?initSurfOfRevInstance@PrimitiveSet@@AAEXPBUSurfOfRevInst@@H@Z 8006ed3a f   ani:scene_renderer.obj
 0006:00021fef       ?initBoxInstance@PrimitiveSet@@AAEXPBUBoxInst@@H@Z 8006ef0f f   ani:scene_renderer.obj
 0006:000221c9       ?initTorusInstance@PrimitiveSet@@AAEXPBUTorusInst@@H@Z 8006f0e9 f   ani:scene_renderer.obj
 0006:000223a7       ?render@PrimitiveSet@@QAEXABU_D3DLIGHT8@@_N@Z 8006f2c7 f   ani:scene_renderer.obj
 0006:00022979       ?create@PrimitiveSet@@QAEXPBXH0HHW4ShaderTypes@@W4PrimitiveTypes@@PAUD3DTexture@@PAUD3DCubeTexture@@@Z 8006f899 f   ani:scene_renderer.obj
 0006:00022d56       ?createSceneGeometry@SceneRenderer@@IAEXPAPAVPrimitiveSet@@H@Z 8006fc76 f   ani:scene_renderer.obj
 0006:00022e35       ?render@SceneRenderer@@QAEX_N0@Z 8006fd55 f   ani:scene_renderer.obj
 0006:00022f8f       ?advanceTime@SceneRenderer@@QAEXMM@Z 8006feaf f   ani:scene_renderer.obj
 0006:00023191       ?renderZ@PrimitiveSet@@QAEXXZ 800700b1 f   ani:scene_renderer.obj
 0006:000231b1       ?renderShadowMap@PrimitiveSet@@QAEX_N@Z 800700d1 f   ani:scene_renderer.obj
 0006:000231da       ?create@SceneRenderer@@QAEXXZ 800700fa f   ani:scene_renderer.obj
 0006:0002334b       ?renderZ@SceneRenderer@@QAEXXZ 8007026b f   ani:scene_renderer.obj
 0006:0002336e       ?updateSBuffer@SceneRenderer@@IAEX_N@Z 8007028e f   ani:scene_renderer.obj
 0006:00023665       ?updateShadows@SceneRenderer@@QAEXXZ 80070585 f   ani:scene_renderer.obj
 0006:000236ac       _put_fifo@4                800705cc f   ani:sos.obj
 0006:000236d6       _get_fifo@0                800705f6 f   ani:sos.obj
 0006:000236fa       _init_queuelist@0          8007061a f   ani:sos.obj
 0006:000237a2       _get_track_info_block2@8   800706c2 f   ani:sos.obj
 0006:000237c2       _sos_main@0                800706e2 f   ani:sos.obj
 0006:000238ac       _do_sos_init_return@0      800707cc f   ani:sos.obj
 0006:000238dc       ?VectorToRGBA@@YGKPBU_D3DVECTOR@@@Z 800707fc f i ani:tex_gen.obj
 0006:00023948       ?CreateHighlightTexture@@YGPAUD3DTexture@@HH_NMM@Z 80070868 f   ani:tex_gen.obj
 0006:00023b42       ?CreateGlowTexture@@YGPAUD3DTexture@@HHHHH@Z 80070a62 f   ani:tex_gen.obj
 0006:00023d11       ?CreateGradientTexture@@YGPAUD3DTexture@@KKKK@Z 80070c31 f   ani:tex_gen.obj
 0006:00023f41       ?CreateIntensityTexture@@YGPAUD3DTexture@@H_NMHHHH0KH@Z 80070e61 f   ani:tex_gen.obj
 0006:0002434c       ?CreateIntensityTexture_8Bit@@YGXQAPAUD3DTexture@@HHHHHH@Z 8007126c f   ani:tex_gen.obj
 0006:0002464d       ?CreateNormalizationCubeMap@@YGPAUD3DCubeTexture@@K@Z 8007156d f   ani:tex_gen.obj
 0006:000247ee       ?GetNumberOfIndicesForTristripMesh@@YGHHH_N0@Z 8007170e f   ani:tex_gen.obj
 0006:00024843       ?CreateTristripForMesh@@YGHPAGHH_N1HHH@Z 80071763 f   ani:tex_gen.obj
 0006:00024994       ?SetCubeMapView@@YGXKABU_D3DVECTOR@@PAU_D3DMATRIX@@@Z 800718b4 f i ani:tex_gen.obj
 0006:00024a65       ?CreateStaticReflectionCubeMap@@YGPAUD3DCubeTexture@@K@Z 80071985 f   ani:tex_gen.obj
 0006:00024bc4       ?BootSoundDpc@@YGXPAU_KDPC@@PAX11@Z 80071ae4 f   ani:bootsound.obj
 0006:00024bd3       _BootSound_Start@0         80071af3 f   ani:bootsound.obj
 0006:00024c0d       _BootSound_Stop@0          80071b2d f   ani:bootsound.obj
 0006:00024c1c       __purecall                 80071b3c f   ani:bootsound.obj
 0006:00024c1e       _call_mark@0               80071b3e f   ani:cf.obj
 0006:00024c2c       _init_track_status@8       80071b4c f   ani:cf.obj
 0006:00024c56       _nosound@4                 80071b76 f   ani:cf.obj
 0006:00024c70       _remove_processes_by_level@4 80071b90 f   ani:cf.obj
 0006:00024c97       _remove_processes_by_level_and_channel@8 80071bb7 f   ani:cf.obj
 0006:00024cc7       _call_silence@0            80071be7 f   ani:cf.obj
 0006:00024d35       _call_music@0              80071c55 f   ani:cf.obj
 0006:00024dca       _call_effect@0             80071cea f   ani:cf.obj
 0006:00024e3e       _silence_dsp@4             80071d5e f   ani:dev.obj
 0006:00024e44       _note_on_dsp@0             80071d64 f   ani:dev.obj
 0006:00024eb7       _slur_dsp@0                80071dd7 f   ani:dev.obj
 0006:00024ef9       _note_off_dsp@0            80071e19 f   ani:dev.obj
 0006:00024f16       _vp_filter@0               80071e36 f   ani:dev.obj
 0006:00024f6d       _patch_dsp@4               80071e8d f   ani:dev.obj
 0006:00024ff6       _pan_dsp@12                80071f16 f   ani:dev.obj
 0006:00025003       _rand                      80071f23 f   ani:dev.obj
 0006:00025026       _dev_init@0                80071f46 f   ani:dev.obj
 0006:00025288       _dev_cleanup@0             800721a8 f   ani:dev.obj
 0006:000252ad       _volume_dsp@16             800721cd f   ani:dev.obj
 0006:000252d6       _call_volume@0             800721f6 f   ani:cf.obj
 0006:000252d6       _call_end_timer@0          800721f6 f   ani:cf.obj
 0006:000252d6       _user_silence_function@0   800721f6 f   ani:dev.obj
 0006:000252d6       _call_timer@0              800721f6 f   ani:cf.obj
 0006:000252d6       _call_user_function@0      800721f6 f   ani:dev.obj
 0006:000252d6       _call_ignore@0             800721f6 f   ani:cf.obj
 0006:000252d6       _call_play_timer@0         800721f6 f   ani:cf.obj
 0006:000252d6       _call_kill_effect@0        800721f6 f   ani:cf.obj
 0006:000252d6       _call_senddev@0            800721f6 f   ani:cf.obj
 0006:000252d7       _f_note@0                  800721f7 f   ani:evf.obj
 0006:000253b6       _f_mark@0                  800722d6 f   ani:evf.obj
 0006:000253b6       _f_intvarinc@0             800722d6 f   ani:evf.obj
 0006:000253b6       _f_MidiEOT@0               800722d6 f   ani:evf.obj
 0006:000253b6       _f_MidiNoteOn@0            800722d6 f   ani:evf.obj
 0006:000253b6       _f_gliss@0                 800722d6 f   ani:evf.obj
 0006:000253b6       _f_srest@0                 800722d6 f   ani:evf.obj
 0006:000253b6       _f_clockinc@0              800722d6 f   ani:evf.obj
 0006:000253b6       _f_MidiTempo@0             800722d6 f   ani:evf.obj
 0006:000253b6       _f_MidiControl@0           800722d6 f   ani:evf.obj
 0006:000253b6       _f_MidiProgram@0           800722d6 f   ani:evf.obj
 0006:000253b6       _f_musicclockinc@0         800722d6 f   ani:evf.obj
 0006:000253b6       _f_intvarset@0             800722d6 f   ani:evf.obj
 0006:000253b6       _f_MidiVolume@0            800722d6 f   ani:evf.obj
 0006:000253b6       _f_MidiNoteOff@0           800722d6 f   ani:evf.obj
 0006:000253ba       _f_rest@0                  800722da f   ani:evf.obj
 0006:00025427       _f_jumpto@0                80072347 f   ani:evf.obj
 0006:00025468       _f_loop@0                  80072388 f   ani:evf.obj
 0006:000254c4       _f_endloop@0               800723e4 f   ani:evf.obj
 0006:00025518       _f_patch@0                 80072438 f   ani:evf.obj
 0006:0002558c       _f_pan@0                   800724ac f   ani:evf.obj
 0006:00025608       _f_paninc@0                80072528 f   ani:evf.obj
 0006:00025681       _f_mux@0                   800725a1 f   ani:evf.obj
 0006:000256ca       _f_demux@0                 800725ea f   ani:evf.obj
 0006:00025704       _f_volume@0                80072624 f   ani:evf.obj
 0006:0002577e       _f_fxset@0                 8007269e f   ani:evf.obj
 0006:000257b0       _f_xpose@0                 800726d0 f   ani:evf.obj
 0006:000257ea       _f_xset@0                  8007270a f   ani:evf.obj
 0006:00025824       _f_filterinc@0             80072744 f   ani:evf.obj
 0006:0002588a       _f_filterset@0             800727aa f   ani:evf.obj
 0006:000258f0       _f_slur@0                  80072810 f   ani:evf.obj
 0006:000259cf       _f_ring@0                  800728ef f   ani:evf.obj
 0006:00025a20       _f_clockset@0              80072940 f   ani:evf.obj
 0006:00025a53       _f_end@0                   80072973 f   ani:evf.obj
 0006:00025a56       _f_sound_call@0            80072976 f   ani:evf.obj
 0006:00025a90       _f_user_1_var_evf@0        800729b0 f   ani:evf.obj
 0006:00025acd       _f_user_2_var_evf@0        800729ed f   ani:evf.obj
 0006:00025b1d       _f_sig@0                   80072a3d f   ani:evf.obj
 0006:00025b4c       _kill_process@4            80072a6c f   ani:proc.obj
 0006:00025b83       _get_process_packet@0      80072aa3 f   ani:proc.obj
 0006:00025b9e       _create_process@12         80072abe f   ani:proc.obj
 0006:00025c46       _HalInitSystemPhase0@0     80072b66 f   halx:xxhal.obj
 0006:00025ca4       _HalMicrocodeUpdateLoader@0 80072bc4 f   halx:mcupdate.obj
 0006:00025cd4       HalpMicrocode686           80072bf4     halx:mcupdate.obj
 0006:000264d4       HalpMicrocode68A           800733f4     halx:mcupdate.obj
 0006:00026cd4       _HalpSetupPCIDevices@0     80073bf4 f   halx:pcisetup.obj
 0006:0002704c       _HalpInitializeClock@0     80073f6c f   halx:ixclock.obj
 0006:00027070       _g_Image                   80073f90     init:fatal.obj
 0006:00028770       _Verts                     80075690     init:fatal.obj
 0006:00028800       _D3DSIMPLERENDERSTATEENCODE 80075720     init:fatal.obj
 0006:00028948       _D3DPRIMITIVETOVERTEXCOUNT 80075868     init:fatal.obj
 0006:00029d68       _event_fcns                80076c88     ani:sos.obj
 0006:00029e00       _call_fcns                 80076d20     ani:sos.obj
 0006:00029e48       _pitch_table_dsp           80076d68     ani:dev.obj
 0006:00029e50       _ThunEl16Data              80076d70     ani:dev.obj
 0006:0002f398       _GlockData                 8007c2b8     ani:dev.obj
 0006:00030258       _BubbleData                8007d178     ani:dev.obj
 0006:00031c98       _max_processes             8007ebb8     ani:dev.obj
 0006:00031c9a       _max_tracks                8007ebba     ani:dev.obj
 0006:00031ca0       _filter_functions          8007ebc0     ani:dev.obj
 0006:00031ce0       _silence_functions         8007ec00     ani:dev.obj
 0006:00031d20       _note_on_functions         8007ec40     ani:dev.obj
 0006:00031d60       _slur_functions            8007ec80     ani:dev.obj
 0006:00031da0       _note_off_functions        8007ecc0     ani:dev.obj
 0006:00031de0       _patch_functions           8007ed00     ani:dev.obj
 0006:00031e20       _volume_functions          8007ed40     ani:dev.obj
 0006:00031e60       _pan_functions             8007ed80     ani:dev.obj
 0006:00031ea0       _user_1_var_evf_functions  8007edc0     ani:dev.obj
 0006:00031ea4       _user_2_var_evf_functions  8007edc4     ani:dev.obj
 0006:00031ea8       _PatchSin                  8007edc8     ani:stboot.obj
 0006:00031ebc       _PatchSaw1                 8007eddc     ani:stboot.obj
 0006:00031ed0       _PatchSaw2                 8007edf0     ani:stboot.obj
 0006:00031ee4       _PatchSaw3                 8007ee04     ani:stboot.obj
 0006:00031ef8       _PatchSquare               8007ee18     ani:stboot.obj
 0006:00031f0c       _PatchEnvNoise1            8007ee2c     ani:stboot.obj
 0006:00031f20       _PatchFM                   8007ee40     ani:stboot.obj
 0006:00031f34       _PatchGlock                8007ee54     ani:stboot.obj
 0006:00031f48       _PatchThunEl16             8007ee68     ani:stboot.obj
 0006:00031f5c       _PatchRevThun              8007ee7c     ani:stboot.obj
 0006:00031f70       _PatchBubble               8007ee90     ani:stboot.obj
 0006:00031f88       _Boot0                     8007eea8     ani:stboot.obj
 0006:00032008       _Boot1                     8007ef28     ani:stboot.obj
 0006:00032058       _Boot2                     8007ef78     ani:stboot.obj
 0006:00032098       _Boot3                     8007efb8     ani:stboot.obj
 0006:000320e0       _Boot4                     8007f000     ani:stboot.obj
 0006:00032180       _Boot5                     8007f0a0     ani:stboot.obj
 0006:000321e8       _Boot6                     8007f108     ani:stboot.obj
 0006:000321f4       _Boot8                     8007f114     ani:stboot.obj
 0006:00032210       _Boot7                     8007f130     ani:stboot.obj
 0006:00032270       _Boot9                     8007f190     ani:stboot.obj
 0006:000322a8       _BootA                     8007f1c8     ani:stboot.obj
 0006:000322dc       _BootB                     8007f1fc     ani:stboot.obj
 0006:00032310       _Tune0                     8007f230     ani:stboot.obj
 0006:00032364       _Tune1                     8007f284     ani:stboot.obj
 0006:00032370       _sound_calls               8007f290     ani:stboot.obj
 0006:00032390       _ExpBldrEncryptionKey      8007f2b0     init:init.obj
 0006:000323a0       _LEDSegmentDef             8007f2c0     init:fatal.obj
 0006:000323a8       _LEDCharDef                8007f2c8     init:fatal.obj
 0006:000323b4       _gBootAnimation_DoAnimation 8007f2d4     ani:animate.obj
 0006:000323b8       _gBootAnimation_DoSound    8007f2d8     ani:animate.obj
 0006:000323bc       ?g_ImageLogo@@3PAEA        8007f2dc     ani:mslogo.obj
 0006:000323c0       ?g_pTexMicrosoftLogo@@3PAUD3DTexture@@A 8007f2e0     ani:mslogo.obj
 0006:000323c4       ?g_pVBMicrosoftLogo@@3PAUD3DVertexBuffer@@A 8007f2e4     ani:mslogo.obj
 0006:000323c8       ?g_ImageLogoSize@@3IA      8007f2e8     ani:mslogo.obj
 0006:000323cc       _g_EventLogo               8007f2ec     ani:mslogo.obj
 0006:000323dc       _g_EventLogoWaiting        8007f2fc     ani:mslogo.obj
 0006:000323f0       ?gApp@@3VXBoxStartupApp@@A 8007f310     ani:xbs_app.obj
 0006:00033c10       ?g_NVCLKSpeed@@3KA         80080b30     ani:xbs_app.obj
 0006:00033c14       ?mul@?1??fRand01@XBoxStartupApp@@QAEMXZ@4MA 80080b34     ani:xbs_app.obj
 0006:00033c18       ?mul@?1??fRand11@XBoxStartupApp@@QAEMXZ@4MA 80080b38     ani:xbs_app.obj
 0006:00033c1c       ?gpd3dDev@@3PAUD3DDevice@@A 80080b3c     ani:renderer.obj
 0006:00033c20       ?pam_0@@3PBU__m128@@B      80080b40     ani:fastmath.obj
 0006:00033c24       ?pam_1@@3PBU__m128@@B      80080b44     ani:fastmath.obj
 0006:00033c28       ?pam_minus_1@@3PBU__m128@@B 80080b48     ani:fastmath.obj
 0006:00033c2c       ?pam_0p5@@3PBU__m128@@B    80080b4c     ani:fastmath.obj
 0006:00033c30       ?pam_1p5@@3PBU__m128@@B    80080b50     ani:fastmath.obj
 0006:00033c34       ?pam_3_over_2@@3PBU__m128@@B 80080b54     ani:fastmath.obj
 0006:00033c38       ?pam_pi@@3PBU__m128@@B     80080b58     ani:fastmath.obj
 0006:00033c3c       ?pam_pi_over_2@@3PBU__m128@@B 80080b5c     ani:fastmath.obj
 0006:00033c40       ?pam_2_over_pi@@3PBU__m128@@B 80080b60     ani:fastmath.obj
 0006:00033c44       ?pam_sign_mask@@3PBU__m128@@B 80080b64     ani:fastmath.obj
 0006:00033c48       ?pam_inv_sign_mask@@3PBU__m128@@B 80080b68     ani:fastmath.obj
 0006:00033c4c       ?pam_min_pos_norm@@3PBU__m128@@B 80080b6c     ani:fastmath.obj
 0006:00033c50       ?pam_mant_mask@@3PBU__m128@@B 80080b70     ani:fastmath.obj
 0006:00033c54       ?pam_inv_mant_mask@@3PBU__m128@@B 80080b74     ani:fastmath.obj
 0006:00033c58       ?gpVBlob@@3PAVVBlob@@A     80080b78     ani:vblob.obj
 0006:00033c5c       ?m_QRand@VBlob@@1VQRand@@A 80080b7c     ani:vblob.obj
 0006:00033c60       ?mul@?1??fRand01@VBlob@@SGMXZ@4MA 80080b80     ani:vblob.obj
 0006:00033c64       ?mul@?1??fRand11@VBlob@@SGMXZ@4MA 80080b84     ani:vblob.obj
 0006:00033c68       ?svCameraList@CameraController@@1PAUCamControlNode@@A 80080b88     ani:camcontrol.obj
 0006:00034158       ?svCameraListData@CameraController@@1PAUCamControlNodeData@@A 80081078     ani:camcontrol.obj
 0006:000343a8       ?verts_xboxlogointerior_0C@@3PAFA 800812c8     ani:logo_renderer.obj
 0006:00035740       ?indices_xboxlogointerior_0C@@3PADA 80082660     ani:logo_renderer.obj
 0006:00035e40       ?verts_xboxlogolip_0C@@3PAFA 80082d60     ani:logo_renderer.obj
 0006:00036678       ?indices_xboxlogolip_0C@@3PADA 80083598     ani:logo_renderer.obj
 0006:000367c8       ?verts_xboxlogosurfacetop_0C@@3PAFA 800836e8     ani:logo_renderer.obj
 0006:00036920       ?indices_xboxlogosurfacetop_0C@@3PADA 80083840     ani:logo_renderer.obj
 0006:00036990       ?verts_xboxlogosurface_0C@@3PAFA 800838b0     ani:logo_renderer.obj
 0006:00036c98       ?indices_xboxlogosurface_0C@@3PADA 80083bb8     ani:logo_renderer.obj
 0006:00036d7c       ?verts_tm_slash_0C@@3PAFA  80083c9c     ani:logo_renderer.obj
 0006:00036da4       ?indices_tm_slash_0C@@3PADA 80083cc4     ani:logo_renderer.obj
 0006:00036dac       ?verts_tm_wordmark_0C@@3PAFA 80083ccc     ani:logo_renderer.obj
 0006:00036dd4       ?indices_tm_wordmark_0C@@3PADA 80083cf4     ani:logo_renderer.obj
 0006:00036de0       ?verts_text_0C@@3PAFA      80083d00     ani:logo_renderer.obj
 0006:00037188       ?indices_text_0C@@3PADA    800840a8     ani:logo_renderer.obj
 0006:00037358       ?pos_anim_text@@3PAU_D3DVECTOR@@A 80084278     ani:logo_renderer.obj
 0006:00037370       ?tm_pixels@@3PAKA          80084290     ani:logo_renderer.obj
 0006:00037770       ?theRotAnimSeq@@3PAURotAnimSeq@@A 80084690     ani:scene_renderer.obj
 0006:000381a8       ?thePosAnimSeq@@3PAUPosAnimSeq@@A 800850c8     ani:scene_renderer.obj
 0006:00038ce8       ?numPos@@3FA               80085c08     ani:scene_renderer.obj
 0006:00038cf0       ?thePos@@3PAFA             80085c10     ani:scene_renderer.obj
 0006:00039470       ?numQuats@@3FA             80086390     ani:scene_renderer.obj
 0006:00039478       ?theQuats@@3PAFA           80086398     ani:scene_renderer.obj
 0006:00039e28       ?theQuatSigns@@3PAKA       80086d48     ani:scene_renderer.obj
 0006:00039e60       ?theSphereInsts@@3PAUSphereInst@@A 80086d80     ani:scene_renderer.obj
 0006:0003a020       ?theSphereVers@@3PAUSphereVers@@A 80086f40     ani:scene_renderer.obj
 0006:0003a028       ?theCylinderInsts@@3PAUCylinderInst@@A 80086f48     ani:scene_renderer.obj
 0006:0003a3d4       ?theCylinderVers@@3PAUCylinderVers@@A 800872f4     ani:scene_renderer.obj
 0006:0003a3e0       ?theBoxInsts@@3PAUBoxInst@@A 80087300     ani:scene_renderer.obj
 0006:0003aaa0       ?theTorusInsts@@3PAUTorusInst@@A 800879c0     ani:scene_renderer.obj
 0006:0003afe0       ?theTorusVers@@3PAUTorusVers@@A 80087f00     ani:scene_renderer.obj
 0006:0003b018       ?theConeInsts@@3PAUConeInst@@A 80087f38     ani:scene_renderer.obj
 0006:0003b1b0       ?theConeVers@@3PAUConeVers@@A 800880d0     ani:scene_renderer.obj
 0006:0003b1e0       ?theSurfOfRevInsts@@3PAUSurfOfRevInst@@A 80088100     ani:scene_renderer.obj
 0006:0003b228       ?theSurfOfRevVers@@3PAUSurfOfRevVers@@A 80088148     ani:scene_renderer.obj
 0006:0003b8a4       _sound_call                800887c4     ani:sos.obj
 0006:0003b8a8       ?g_BootSoundTimer@@3U_KTIMER@@A 800887c8     ani:bootsound.obj
 0006:0003b8d0       ?g_BootSoundDpc@@3U_KDPC@@A 800887f0     ani:bootsound.obj
 0006:0003b8f0       _queue_list                80088810     ani:dev.obj
 0006:0003bc38       _ThunEl16                  80088b58     ani:dev.obj
 0006:000466b8       _channel_level             800935d8     ani:dev.obj
 0006:000466c8       _Saw128                    800935e8     ani:dev.obj
 0006:000467c8       _track_status              800936e8     ani:dev.obj
 0006:00046ec8       _m_pDSBuffer               80093de8     ani:dev.obj
 0006:00046f08       _dsp_data                  80093e28     ani:dev.obj
 0006:00046f10       _FM32768                   80093e30     ani:dev.obj
 0006:00056f10       _m_pDSound                 800a3e30     ani:dev.obj
 0006:00056f18       _Sin128                    800a3e38     ani:dev.obj
 0006:00057018       _Bubble                    800a3f38     ani:dev.obj
 0006:0005a498       _ReverseThunEl16           800a73b8     ani:dev.obj
 0006:00064f18       _Noise8192                 800b1e38     ani:dev.obj
 0006:00068f18       _dsp_address               800b5e38     ani:dev.obj
 0006:00068f20       _Glock                     800b5e40     ani:dev.obj
 0006:0006ac94       _pan_table                 800b7bb4     ani:dev.obj
 0006:0006ac9c       _un_char                   800b7bbc     ani:evf.obj
 0006:0006aca0       _un_int                    800b7bc0     ani:evf.obj
 0006:0006aca4       _ptr                       800b7bc4     ani:evf.obj
 0006:0006aca8       _master_music_volume       800b7bc8     ani:globals.obj
 0006:0006acac       _global_music_xpose        800b7bcc     ani:globals.obj
 0006:0006acb0       _fifo                      800b7bd0     ani:globals.obj
 0006:0006acc4       _current_call              800b7be4     ani:globals.obj
 0006:0006acc8       _sos_only                  800b7be8     ani:globals.obj
 0006:0006acc9       _current_channel           800b7be9     ani:globals.obj
 0006:0006accc       _process_queue             800b7bec     ani:globals.obj
 0006:0006acd0       _clock_cntr_value          800b7bf0     ani:globals.obj
 0006:0006acd2       _last_music_call           800b7bf2     ani:globals.obj
 0006:0006acd3       _system_clock_fxlow        800b7bf3     ani:globals.obj
 0006:0006acd4       _music_atten               800b7bf4     ani:globals.obj
 0006:0006acd8       _ti                        800b7bf8     ani:globals.obj
 0006:0006acdc       _sound_call_table          800b7bfc     ani:globals.obj
 0006:0006acdd       _clock_cntr_save           800b7bfd     ani:globals.obj
 0006:0006ace0       _dp_word1                  800b7c00     ani:globals.obj
 0006:0006ace2       _gtifbtmp                  800b7c02     ani:globals.obj
 0006:0006ace3       _marker                    800b7c03     ani:globals.obj
 0006:0006ace4       _a_value                   800b7c04     ani:globals.obj
 0006:0006ace8       _global_effect_xpose       800b7c08     ani:globals.obj
 0006:0006acea       _system_clock_mlow         800b7c0a     ani:globals.obj
 0006:0006acec       _global_fxpose             800b7c0c     ani:globals.obj
 0006:0006acf0       _system_clock_fx           800b7c10     ani:globals.obj
 0006:0006acf2       _b_value                   800b7c12     ani:globals.obj
 0006:0006acf4       _value_16_bit              800b7c14     ani:globals.obj
 0006:0006acf8       _system_clock_music        800b7c18     ani:globals.obj
 0006:0006acfc       _clock_cntr                800b7c1c     ani:globals.obj
 0006:0006acfe       _current_timer_priority    800b7c1e     ani:globals.obj
 0006:0006ad00       _current_process           800b7c20     ani:globals.obj
 0006:0006ad04       _current_level             800b7c24     ani:globals.obj
 0006:0006ad05       _master_effect_volume      800b7c25     ani:globals.obj
 0006:0006ad08       _pp                        800b7c28     ani:proc.obj
 0006:0006ad10       _sound_calls2              800b7c30     ani:stboot.obj
 0006:0006ad20       _Env1a                     800b7c40     ani:stboot.obj
 0006:0006ad48       _Env1m                     800b7c68     ani:stboot.obj
 0006:0006ad70       _Env2a                     800b7c90     ani:stboot.obj
 0006:0006ad98       _Env2m                     800b7cb8     ani:stboot.obj
 0006:0006adc0       _Env3a                     800b7ce0     ani:stboot.obj
 0006:0006ade8       _Env3m                     800b7d08     ani:stboot.obj
 0006:0006ae10       _OpenEnva                  800b7d30     ani:stboot.obj
 0006:0006ae38       _OpenEnvm                  800b7d58     ani:stboot.obj
 0006:0006ae60       _SawEnv1a                  800b7d80     ani:stboot.obj
 0006:0006ae88       _SawEnv1m                  800b7da8     ani:stboot.obj
 0006:0006aeb0       _SawEnv2a                  800b7dd0     ani:stboot.obj
 0006:0006aed8       _SawEnv2m                  800b7df8     ani:stboot.obj
 0006:0006af00       _NoiseEnv1a                800b7e20     ani:stboot.obj
 0006:0006af28       _NoiseEnv1m                800b7e48     ani:stboot.obj
 0006:0006af50       _Patches                   800b7e70     ani:stboot.obj
 0006:0006af7c       _Boot                      800b7e9c     ani:stboot.obj
 0006:0006afac       _Tune                      800b7ecc     ani:stboot.obj
 0006:0006afb0       _max_sound_call            800b7ed0     ani:stboot.obj
 0006:0006afb4       _default_clock_value       800b7ed4     ani:stboot.obj
 0006:0006afb8       ??0Swizzler@@QAE@XZ        800b7ed8 f i xgraphics:swizzler.obj
 0006:0006afd7       ?Init@Swizzler@@QAEXKKK@Z  800b7ef7 f i xgraphics:swizzler.obj
 0006:0006b038       ?SwizzleU@Swizzler@@QAEKK@Z 800b7f58 f i xgraphics:swizzler.obj
 0006:0006b061       ?SwizzleV@Swizzler@@QAEKK@Z 800b7f81 f i xgraphics:swizzler.obj
 0006:0006b08a       ?Log2@XGRAPHICS@@YIKK@Z    800b7faa f i xgraphics:swizzler.obj
 0006:0006b096       ?GetMasks2@XGRAPHICS@@YGXHHPAK0@Z 800b7fb6 f i xgraphics:swizzler.obj
 0006:0006b10a       ?swiz2d_8bit@XGRAPHICS@@YGXPBXPAXHH@Z 800b802a f   xgraphics:swizzler.obj
 0006:0006b20a       ?swiz2d_16bit@XGRAPHICS@@YGXPBXPAXHH@Z 800b812a f   xgraphics:swizzler.obj
 0006:0006b308       ?swiz2d_32bit@XGRAPHICS@@YGXPBXPAXHH@Z 800b8228 f   xgraphics:swizzler.obj
 0006:0006b401       ?Swizzle1x1Column@?$XGInternalSwizzler@K@XGRAPHICS@@SGXPAUXGINTERNALSWIZZLE@2@@Z 800b8321 f i xgraphics:swizzler.obj
 0006:0006b482       ?Swizzle2x1@?$XGInternalSwizzler@K@XGRAPHICS@@SGXPAUXGINTERNALSWIZZLE@2@@Z 800b83a2 f i xgraphics:swizzler.obj
 0006:0006b556       ?Swizzle1x1Column@?$XGInternalSwizzler@G@XGRAPHICS@@SGXPAUXGINTERNALSWIZZLE@2@@Z 800b8476 f i xgraphics:swizzler.obj
 0006:0006b5d9       ?Swizzle2x1@?$XGInternalSwizzler@G@XGRAPHICS@@SGXPAUXGINTERNALSWIZZLE@2@@Z 800b84f9 f i xgraphics:swizzler.obj
 0006:0006b6a5       ?Swizzle1x1Column@?$XGInternalSwizzler@E@XGRAPHICS@@SGXPAUXGINTERNALSWIZZLE@2@@Z 800b85c5 f i xgraphics:swizzler.obj
 0006:0006b720       ?Swizzle2x1@?$XGInternalSwizzler@_J@XGRAPHICS@@SGXPAUXGINTERNALSWIZZLE@2@@Z 800b8640 f i xgraphics:swizzler.obj
 0006:0006b7fc       _XGSwizzleRect@32          800b871c f   xgraphics:swizzler.obj
 0006:0006bf4d       ?IsCompressedD3DFORMAT@XGRAPHICS@@YG_NK@Z 800b8e6d f i xgraphics:header.obj
 0006:0006bf69       ?MinimumTextureSizeOfD3DFORMAT@XGRAPHICS@@YGKK@Z 800b8e89 f i xgraphics:header.obj
 0006:0006bf7c       ?EncodeFormat@XGRAPHICS@@YGKKKKKW4_D3DFORMAT@@K_N1PAK2@Z 800b8e9c f   xgraphics:header.obj
 0006:0006c11b       _XGSetSurfaceHeader@24     800b903b f   xgraphics:header.obj
 0006:0006c160       ?g_TextureFormat@XGRAPHICS@@3QBEB 800b9080     xgraphics:header.obj

 entry point at        0006:0001854c

 Static symbols

 0001:0000c5a6       _KiShutUpAssembler         8001c8a6 f   ke:intsup.obj
 0001:0001449e       ExceptionHandler@16        8002479e f   ntosrtl:xcptmisc.obj
 0001:000144c5       UnwindHandler@16           800247c5 f   ntosrtl:xcptmisc.obj
 0001:0001fdcb       _write_char                800300cb f   libcntpr:output.obj
 0001:0001fdfe       _write_multi_char          800300fe f   libcntpr:output.obj
 0001:0001fe22       _write_string              80030122 f   libcntpr:output.obj
 0001:000204e0       __unwind_handler           800307e0 f   libcntpr:exsup.obj
 0006:0000a570       ?nvKelvinACSelect2@D3DK@@YGJPAVCDevice@1@KK@Z 80057490 f   d3d8ntpr:combiner.obj
 0006:0000a5b0       ?nvKelvinACAdd@D3DK@@YGJPAVCDevice@1@KK@Z 800574d0 f   d3d8ntpr:combiner.obj
 0006:0000a610       ?nvKelvinACSub@D3DK@@YGJPAVCDevice@1@KK@Z 80057530 f   d3d8ntpr:combiner.obj
 0006:0000a670       ?nvKelvinACAddSmooth@D3DK@@YGJPAVCDevice@1@KK@Z 80057590 f   d3d8ntpr:combiner.obj
 0006:0000a6d0       ?nvKelvinACBlendAlpha@D3DK@@YGJPAVCDevice@1@KKK@Z 800575f0 f   d3d8ntpr:combiner.obj
 0006:0000a7b0       ?nvKelvinACPremodulate@D3DK@@YGJPAVCDevice@1@KK@Z 800576d0 f   d3d8ntpr:combiner.obj
 0006:0000a870       ?nvKelvinACMultiplyAdd@D3DK@@YGJPAVCDevice@1@HH@Z 80057790 f   d3d8ntpr:combiner.obj
 0006:0000a8d0       ?nvKelvinACLerp@D3DK@@YGJPAVCDevice@1@HH@Z 800577f0 f   d3d8ntpr:combiner.obj
 0006:0000ad70       ?nvKelvinCCSelect2@D3DK@@YGJPAVCDevice@1@KK@Z 80057c90 f   d3d8ntpr:combiner.obj
 0006:0000adb0       ?nvKelvinCCAdd@D3DK@@YGJPAVCDevice@1@KK@Z 80057cd0 f   d3d8ntpr:combiner.obj
 0006:0000ae10       ?nvKelvinCCSub@D3DK@@YGJPAVCDevice@1@KK@Z 80057d30 f   d3d8ntpr:combiner.obj
 0006:0000ae70       ?nvKelvinCCAddSmooth@D3DK@@YGJPAVCDevice@1@KK@Z 80057d90 f   d3d8ntpr:combiner.obj
 0006:0000aed0       ?nvKelvinCCBlendAlpha@D3DK@@YGJPAVCDevice@1@KKK@Z 80057df0 f   d3d8ntpr:combiner.obj
 0006:0000afc0       ?nvKelvinCCPremodulate@D3DK@@YGJPAVCDevice@1@KK@Z 80057ee0 f   d3d8ntpr:combiner.obj
 0006:0000b080       ?nvKelvinCCModulateAlpha@D3DK@@YGJPAVCDevice@1@KKH@Z 80057fa0 f   d3d8ntpr:combiner.obj
 0006:0000b0f0       ?nvKelvinCCModulateColor@D3DK@@YGJPAVCDevice@1@KKH@Z 80058010 f   d3d8ntpr:combiner.obj
 0006:0000b160       ?nvKelvinBumpMap@D3DK@@YGJPAVCDevice@1@KK@Z 80058080 f   d3d8ntpr:combiner.obj
 0006:0000b1c0       ?nvKelvinCCMultiplyAdd@D3DK@@YGJPAVCDevice@1@HH@Z 800580e0 f   d3d8ntpr:combiner.obj
 0006:0000b220       ?nvKelvinCCLerp@D3DK@@YGJPAVCDevice@1@HH@Z 80058140 f   d3d8ntpr:combiner.obj
